
/home/lixb/github/scr1/build/coremark.elf:     file format elf32-littleriscv


Disassembly of section .text.init:

00000000 <SIM_EXIT-0xf4>:
	...

000000f4 <SIM_EXIT>:
  f4:	00000013          	nop

000000f8 <SIM_STOP>:
  f8:	0000006f          	j	f8 <SIM_STOP>
  fc:	ffff                	0xffff
  fe:	ffff                	0xffff

Disassembly of section .text:

00000100 <machine_trap_entry-0xc0>:
	...

000001c0 <machine_trap_entry>:
     1c0:	0a20006f          	j	262 <trap_entry>
     1c4:	00000013          	nop
     1c8:	00000013          	nop
     1cc:	00000013          	nop
     1d0:	00000013          	nop
     1d4:	00000013          	nop
     1d8:	00000013          	nop
     1dc:	00000013          	nop
     1e0:	00000013          	nop
     1e4:	00000013          	nop
     1e8:	00000013          	nop
     1ec:	00000013          	nop
     1f0:	00000013          	nop
     1f4:	00000013          	nop
     1f8:	00000013          	nop
     1fc:	00000013          	nop

00000200 <_start>:
     200:	00007597          	auipc	a1,0x7
     204:	30058593          	addi	a1,a1,768 # 7500 <__BSS_START__>
     208:	00007617          	auipc	a2,0x7
     20c:	31860613          	addi	a2,a2,792 # 7520 <__BSS_END__>
     210:	a021                	j	218 <_start+0x18>
     212:	0005a023          	sw	zero,0(a1)
     216:	0591                	addi	a1,a1,4
     218:	fec59de3          	bne	a1,a2,212 <_start+0x12>
     21c:	61a1                	lui	gp,0x8
     21e:	ce018193          	addi	gp,gp,-800 # 7ce0 <_gp>
     222:	00010117          	auipc	sp,0x10
     226:	dde10113          	addi	sp,sp,-546 # 10000 <__C_STACK_TOP__>
     22a:	004902b7          	lui	t0,0x490
     22e:	4305                	li	t1,1
     230:	0062a023          	sw	t1,0(t0) # 490000 <__C_STACK_TOP__+0x480000>
     234:	004902b7          	lui	t0,0x490
     238:	00428293          	addi	t0,t0,4 # 490004 <__C_STACK_TOP__+0x480004>
     23c:	06300313          	li	t1,99
     240:	0062a023          	sw	t1,0(t0)
     244:	004902b7          	lui	t0,0x490
     248:	01028293          	addi	t0,t0,16 # 490010 <__C_STACK_TOP__+0x480010>
     24c:	537d                	li	t1,-1
     24e:	0062a023          	sw	t1,0(t0)
     252:	0062a223          	sw	t1,4(t0)
     256:	4501                	li	a0,0
     258:	4581                	li	a1,0
     25a:	52a040ef          	jal	ra,4784 <main>
     25e:	0960006f          	j	2f4 <handle_trap>

00000262 <trap_entry>:
     262:	716d                	addi	sp,sp,-272
     264:	c206                	sw	ra,4(sp)
     266:	c40a                	sw	sp,8(sp)
     268:	c60e                	sw	gp,12(sp)
     26a:	c812                	sw	tp,16(sp)
     26c:	ca16                	sw	t0,20(sp)
     26e:	cc1a                	sw	t1,24(sp)
     270:	ce1e                	sw	t2,28(sp)
     272:	d022                	sw	s0,32(sp)
     274:	d226                	sw	s1,36(sp)
     276:	d42a                	sw	a0,40(sp)
     278:	d62e                	sw	a1,44(sp)
     27a:	d832                	sw	a2,48(sp)
     27c:	da36                	sw	a3,52(sp)
     27e:	dc3a                	sw	a4,56(sp)
     280:	de3e                	sw	a5,60(sp)
     282:	c0c2                	sw	a6,64(sp)
     284:	c2c6                	sw	a7,68(sp)
     286:	c4ca                	sw	s2,72(sp)
     288:	c6ce                	sw	s3,76(sp)
     28a:	c8d2                	sw	s4,80(sp)
     28c:	cad6                	sw	s5,84(sp)
     28e:	ccda                	sw	s6,88(sp)
     290:	cede                	sw	s7,92(sp)
     292:	d0e2                	sw	s8,96(sp)
     294:	d2e6                	sw	s9,100(sp)
     296:	d4ea                	sw	s10,104(sp)
     298:	d6ee                	sw	s11,108(sp)
     29a:	d8f2                	sw	t3,112(sp)
     29c:	daf6                	sw	t4,116(sp)
     29e:	dcfa                	sw	t5,120(sp)
     2a0:	defe                	sw	t6,124(sp)
     2a2:	34202573          	csrr	a0,mcause
     2a6:	341025f3          	csrr	a1,mepc
     2aa:	860a                	mv	a2,sp
     2ac:	048000ef          	jal	ra,2f4 <handle_trap>
     2b0:	4092                	lw	ra,4(sp)
     2b2:	4122                	lw	sp,8(sp)
     2b4:	41b2                	lw	gp,12(sp)
     2b6:	4242                	lw	tp,16(sp)
     2b8:	42d2                	lw	t0,20(sp)
     2ba:	4362                	lw	t1,24(sp)
     2bc:	43f2                	lw	t2,28(sp)
     2be:	5402                	lw	s0,32(sp)
     2c0:	5492                	lw	s1,36(sp)
     2c2:	5522                	lw	a0,40(sp)
     2c4:	55b2                	lw	a1,44(sp)
     2c6:	5642                	lw	a2,48(sp)
     2c8:	56d2                	lw	a3,52(sp)
     2ca:	5762                	lw	a4,56(sp)
     2cc:	57f2                	lw	a5,60(sp)
     2ce:	4806                	lw	a6,64(sp)
     2d0:	4896                	lw	a7,68(sp)
     2d2:	4926                	lw	s2,72(sp)
     2d4:	49b6                	lw	s3,76(sp)
     2d6:	4a46                	lw	s4,80(sp)
     2d8:	4ad6                	lw	s5,84(sp)
     2da:	4b66                	lw	s6,88(sp)
     2dc:	4bf6                	lw	s7,92(sp)
     2de:	5c06                	lw	s8,96(sp)
     2e0:	5c96                	lw	s9,100(sp)
     2e2:	5d26                	lw	s10,104(sp)
     2e4:	5db6                	lw	s11,108(sp)
     2e6:	5e46                	lw	t3,112(sp)
     2e8:	5ed6                	lw	t4,116(sp)
     2ea:	5f66                	lw	t5,120(sp)
     2ec:	5ff6                	lw	t6,124(sp)
     2ee:	6151                	addi	sp,sp,272
     2f0:	30200073          	mret

000002f4 <handle_trap>:
     2f4:	e01ff06f          	j	f4 <SIM_EXIT>
	...

00000300 <barebones_clock>:
     300:	c0102573          	rdtime	a0
     304:	8082                	ret
     306:	0001                	nop

00000308 <start_time>:
     308:	c0102773          	rdtime	a4
     30c:	679d                	lui	a5,0x7
     30e:	50e7a223          	sw	a4,1284(a5) # 7504 <start_time_val>
     312:	8082                	ret

00000314 <stop_time>:
     314:	c0102773          	rdtime	a4
     318:	679d                	lui	a5,0x7
     31a:	50e7a023          	sw	a4,1280(a5) # 7500 <__BSS_START__>
     31e:	8082                	ret

00000320 <get_time>:
     320:	679d                	lui	a5,0x7
     322:	629d                	lui	t0,0x7
     324:	5007a503          	lw	a0,1280(a5) # 7500 <__BSS_START__>
     328:	5042a303          	lw	t1,1284(t0) # 7504 <start_time_val>
     32c:	40650533          	sub	a0,a0,t1
     330:	8082                	ret
     332:	0001                	nop

00000334 <time_in_secs>:
     334:	009897b7          	lui	a5,0x989
     338:	68078293          	addi	t0,a5,1664 # 989680 <__C_STACK_TOP__+0x979680>
     33c:	02555533          	divu	a0,a0,t0
     340:	8082                	ret
     342:	0001                	nop

00000344 <portable_init>:
     344:	1141                	addi	sp,sp,-16
     346:	c422                	sw	s0,8(sp)
     348:	842a                	mv	s0,a0
     34a:	00007537          	lui	a0,0x7
     34e:	ca050513          	addi	a0,a0,-864 # 6ca0 <__umoddi3+0x428>
     352:	c606                	sw	ra,12(sp)
     354:	218010ef          	jal	ra,156c <sc_printf>
     358:	4785                	li	a5,1
     35a:	00f40023          	sb	a5,0(s0)
     35e:	40b2                	lw	ra,12(sp)
     360:	4422                	lw	s0,8(sp)
     362:	0141                	addi	sp,sp,16
     364:	8082                	ret
     366:	0001                	nop

00000368 <portable_fini>:
     368:	1141                	addi	sp,sp,-16
     36a:	c606                	sw	ra,12(sp)
     36c:	00050023          	sb	zero,0(a0)
     370:	4701                	li	a4,0
     372:	4681                	li	a3,0
     374:	4601                	li	a2,0
     376:	4581                	li	a1,0
     378:	4501                	li	a0,0
     37a:	3fad                	jal	2f4 <handle_trap>

0000037c <printf_putch>:
     37c:	04022603          	lw	a2,64(tp) # 40 <buflen.1937>
     380:	00020293          	mv	t0,tp
     384:	00160593          	addi	a1,a2,1
     388:	00c28333          	add	t1,t0,a2
     38c:	04b22023          	sw	a1,64(tp) # 40 <buflen.1937>
     390:	00a30023          	sb	a0,0(t1)
     394:	43a9                	li	t2,10
     396:	00750763          	beq	a0,t2,3a4 <printf_putch+0x28>
     39a:	04000513          	li	a0,64
     39e:	00a58563          	beq	a1,a0,3a8 <printf_putch+0x2c>
     3a2:	8082                	ret
     3a4:	0eb05d63          	blez	a1,49e <STACK_SIZE+0x9e>
     3a8:	00020e13          	mv	t3,tp
     3ac:	001e0793          	addi	a5,t3,1
     3b0:	fff7ce83          	lbu	t4,-1(a5)
     3b4:	fffe4f13          	not	t5,t3
     3b8:	f0000fb7          	lui	t6,0xf0000
     3bc:	01ee06b3          	add	a3,t3,t5
     3c0:	00b68633          	add	a2,a3,a1
     3c4:	01df8023          	sb	t4,0(t6) # f0000000 <__C_STACK_TOP__+0xefff0000>
     3c8:	fff58713          	addi	a4,a1,-1
     3cc:	00767293          	andi	t0,a2,7
     3d0:	0ce05763          	blez	a4,49e <STACK_SIZE+0x9e>
     3d4:	06028e63          	beqz	t0,450 <STACK_SIZE+0x50>
     3d8:	4305                	li	t1,1
     3da:	06628063          	beq	t0,t1,43a <STACK_SIZE+0x3a>
     3de:	4389                	li	t2,2
     3e0:	04728863          	beq	t0,t2,430 <STACK_SIZE+0x30>
     3e4:	450d                	li	a0,3
     3e6:	04a28063          	beq	t0,a0,426 <STACK_SIZE+0x26>
     3ea:	4891                	li	a7,4
     3ec:	03128863          	beq	t0,a7,41c <STACK_SIZE+0x1c>
     3f0:	4e95                	li	t4,5
     3f2:	03d28063          	beq	t0,t4,412 <STACK_SIZE+0x12>
     3f6:	4f19                	li	t5,6
     3f8:	01e28863          	beq	t0,t5,408 <STACK_SIZE+0x8>
     3fc:	001e4683          	lbu	a3,1(t3)
     400:	002e0793          	addi	a5,t3,2
     404:	00df8023          	sb	a3,0(t6)
     408:	0007c603          	lbu	a2,0(a5)
     40c:	0785                	addi	a5,a5,1
     40e:	00cf8023          	sb	a2,0(t6)
     412:	0007c703          	lbu	a4,0(a5)
     416:	0785                	addi	a5,a5,1
     418:	00ef8023          	sb	a4,0(t6)
     41c:	0007c283          	lbu	t0,0(a5)
     420:	0785                	addi	a5,a5,1
     422:	005f8023          	sb	t0,0(t6)
     426:	0007c303          	lbu	t1,0(a5)
     42a:	0785                	addi	a5,a5,1
     42c:	006f8023          	sb	t1,0(t6)
     430:	0007c383          	lbu	t2,0(a5)
     434:	0785                	addi	a5,a5,1
     436:	007f8023          	sb	t2,0(t6)
     43a:	0785                	addi	a5,a5,1
     43c:	fff7c503          	lbu	a0,-1(a5)
     440:	40fe08b3          	sub	a7,t3,a5
     444:	00b88eb3          	add	t4,a7,a1
     448:	00af8023          	sb	a0,0(t6)
     44c:	05d05963          	blez	t4,49e <STACK_SIZE+0x9e>
     450:	0007cf03          	lbu	t5,0(a5)
     454:	07a1                	addi	a5,a5,8
     456:	40fe0533          	sub	a0,t3,a5
     45a:	01ef8023          	sb	t5,0(t6)
     45e:	ff97c683          	lbu	a3,-7(a5)
     462:	00b508b3          	add	a7,a0,a1
     466:	00df8023          	sb	a3,0(t6)
     46a:	ffa7c603          	lbu	a2,-6(a5)
     46e:	00cf8023          	sb	a2,0(t6)
     472:	ffb7c703          	lbu	a4,-5(a5)
     476:	00ef8023          	sb	a4,0(t6)
     47a:	ffc7c283          	lbu	t0,-4(a5)
     47e:	005f8023          	sb	t0,0(t6)
     482:	ffd7c303          	lbu	t1,-3(a5)
     486:	006f8023          	sb	t1,0(t6)
     48a:	ffe7c383          	lbu	t2,-2(a5)
     48e:	007f8023          	sb	t2,0(t6)
     492:	fff7ce83          	lbu	t4,-1(a5)
     496:	01df8023          	sb	t4,0(t6)
     49a:	fb104be3          	bgtz	a7,450 <STACK_SIZE+0x50>
     49e:	04022023          	sw	zero,64(tp) # 40 <buflen.1937>
     4a2:	8082                	ret

000004a4 <vprintfmt.constprop.0>:
     4a4:	714d                	addi	sp,sp,-336
     4a6:	13512a23          	sw	s5,308(sp)
     4aa:	14812423          	sw	s0,328(sp)
     4ae:	14912223          	sw	s1,324(sp)
     4b2:	06100793          	li	a5,97
     4b6:	00020493          	mv	s1,tp
     4ba:	13412c23          	sw	s4,312(sp)
     4be:	13712623          	sw	s7,300(sp)
     4c2:	14112623          	sw	ra,332(sp)
     4c6:	15212023          	sw	s2,320(sp)
     4ca:	13312e23          	sw	s3,316(sp)
     4ce:	13612823          	sw	s6,304(sp)
     4d2:	13812423          	sw	s8,296(sp)
     4d6:	13912223          	sw	s9,292(sp)
     4da:	13a12023          	sw	s10,288(sp)
     4de:	11b12e23          	sw	s11,284(sp)
     4e2:	8baa                	mv	s7,a0
     4e4:	c42e                	sw	a1,8(sp)
     4e6:	c63e                	sw	a5,12(sp)
     4e8:	04048a13          	addi	s4,s1,64
     4ec:	000bc083          	lbu	ra,0(s7)
     4f0:	02500713          	li	a4,37
     4f4:	12e08563          	beq	ra,a4,61e <vprintfmt.constprop.0+0x17a>
     4f8:	16008863          	beqz	ra,668 <vprintfmt.constprop.0+0x1c4>
     4fc:	04022d83          	lw	s11,64(tp) # 40 <buflen.1937>
     500:	4c29                	li	s8,10
     502:	0b85                	addi	s7,s7,1
     504:	001d8813          	addi	a6,s11,1
     508:	01b483b3          	add	t2,s1,s11
     50c:	05022023          	sw	a6,64(tp) # 40 <buflen.1937>
     510:	00138023          	sb	ra,0(t2)
     514:	15808463          	beq	ra,s8,65c <vprintfmt.constprop.0+0x1b8>
     518:	04000613          	li	a2,64
     51c:	fcc818e3          	bne	a6,a2,4ec <vprintfmt.constprop.0+0x48>
     520:	00020b13          	mv	s6,tp
     524:	001b0793          	addi	a5,s6,1
     528:	fff7c303          	lbu	t1,-1(a5)
     52c:	fffb4093          	not	ra,s6
     530:	f0000cb7          	lui	s9,0xf0000
     534:	00148fb3          	add	t6,s1,ra
     538:	40f48933          	sub	s2,s1,a5
     53c:	010f8d33          	add	s10,t6,a6
     540:	006c8023          	sb	t1,0(s9) # f0000000 <__C_STACK_TOP__+0xefff0000>
     544:	010905b3          	add	a1,s2,a6
     548:	007d7993          	andi	s3,s10,7
     54c:	0cb05163          	blez	a1,60e <vprintfmt.constprop.0+0x16a>
     550:	06098863          	beqz	s3,5c0 <vprintfmt.constprop.0+0x11c>
     554:	4705                	li	a4,1
     556:	04e98a63          	beq	s3,a4,5aa <vprintfmt.constprop.0+0x106>
     55a:	4509                	li	a0,2
     55c:	04a98263          	beq	s3,a0,5a0 <vprintfmt.constprop.0+0xfc>
     560:	488d                	li	a7,3
     562:	03198a63          	beq	s3,a7,596 <vprintfmt.constprop.0+0xf2>
     566:	4691                	li	a3,4
     568:	02d98263          	beq	s3,a3,58c <vprintfmt.constprop.0+0xe8>
     56c:	4e15                	li	t3,5
     56e:	01c98a63          	beq	s3,t3,582 <vprintfmt.constprop.0+0xde>
     572:	4e99                	li	t4,6
     574:	13d99663          	bne	s3,t4,6a0 <vprintfmt.constprop.0+0x1fc>
     578:	0007c283          	lbu	t0,0(a5)
     57c:	0785                	addi	a5,a5,1
     57e:	005c8023          	sb	t0,0(s9)
     582:	0007cd83          	lbu	s11,0(a5)
     586:	0785                	addi	a5,a5,1
     588:	01bc8023          	sb	s11,0(s9)
     58c:	0007cc03          	lbu	s8,0(a5)
     590:	0785                	addi	a5,a5,1
     592:	018c8023          	sb	s8,0(s9)
     596:	0007c383          	lbu	t2,0(a5)
     59a:	0785                	addi	a5,a5,1
     59c:	007c8023          	sb	t2,0(s9)
     5a0:	0007c603          	lbu	a2,0(a5)
     5a4:	0785                	addi	a5,a5,1
     5a6:	00cc8023          	sb	a2,0(s9)
     5aa:	0785                	addi	a5,a5,1
     5ac:	fff7cb03          	lbu	s6,-1(a5)
     5b0:	40f48333          	sub	t1,s1,a5
     5b4:	010300b3          	add	ra,t1,a6
     5b8:	016c8023          	sb	s6,0(s9)
     5bc:	04105963          	blez	ra,60e <vprintfmt.constprop.0+0x16a>
     5c0:	0007cf83          	lbu	t6,0(a5)
     5c4:	07a1                	addi	a5,a5,8
     5c6:	40f488b3          	sub	a7,s1,a5
     5ca:	01fc8023          	sb	t6,0(s9)
     5ce:	ff97c903          	lbu	s2,-7(a5)
     5d2:	010886b3          	add	a3,a7,a6
     5d6:	012c8023          	sb	s2,0(s9)
     5da:	ffa7cd03          	lbu	s10,-6(a5)
     5de:	01ac8023          	sb	s10,0(s9)
     5e2:	ffb7c583          	lbu	a1,-5(a5)
     5e6:	00bc8023          	sb	a1,0(s9)
     5ea:	ffc7c983          	lbu	s3,-4(a5)
     5ee:	013c8023          	sb	s3,0(s9)
     5f2:	ffd7c703          	lbu	a4,-3(a5)
     5f6:	00ec8023          	sb	a4,0(s9)
     5fa:	ffe7c503          	lbu	a0,-2(a5)
     5fe:	00ac8023          	sb	a0,0(s9)
     602:	fff7ce03          	lbu	t3,-1(a5)
     606:	01cc8023          	sb	t3,0(s9)
     60a:	fad04be3          	bgtz	a3,5c0 <vprintfmt.constprop.0+0x11c>
     60e:	04022023          	sw	zero,64(tp) # 40 <buflen.1937>
     612:	000bc083          	lbu	ra,0(s7)
     616:	02500713          	li	a4,37
     61a:	ece09fe3          	bne	ra,a4,4f8 <vprintfmt.constprop.0+0x54>
     61e:	001bcf83          	lbu	t6,1(s7)
     622:	001b8d93          	addi	s11,s7,1
     626:	669d                	lui	a3,0x7
     628:	876e                	mv	a4,s11
     62a:	02000d13          	li	s10,32
     62e:	597d                	li	s2,-1
     630:	5c7d                	li	s8,-1
     632:	4501                	li	a0,0
     634:	05500b13          	li	s6,85
     638:	1ec68613          	addi	a2,a3,492 # 71ec <__umoddi3+0x974>
     63c:	4325                	li	t1,9
     63e:	fddf8293          	addi	t0,t6,-35
     642:	0ff2f393          	andi	t2,t0,255
     646:	00170b93          	addi	s7,a4,1
     64a:	647b6d63          	bltu	s6,t2,ca4 <vprintfmt.constprop.0+0x800>
     64e:	00239593          	slli	a1,t2,0x2
     652:	00c58833          	add	a6,a1,a2
     656:	00082983          	lw	s3,0(a6)
     65a:	8982                	jr	s3
     65c:	ed0042e3          	bgtz	a6,520 <vprintfmt.constprop.0+0x7c>
     660:	04022023          	sw	zero,64(tp) # 40 <buflen.1937>
     664:	b77d                	j	612 <vprintfmt.constprop.0+0x16e>
     666:	0001                	nop
     668:	14c12083          	lw	ra,332(sp)
     66c:	14812403          	lw	s0,328(sp)
     670:	14412483          	lw	s1,324(sp)
     674:	14012903          	lw	s2,320(sp)
     678:	13c12983          	lw	s3,316(sp)
     67c:	13812a03          	lw	s4,312(sp)
     680:	13412a83          	lw	s5,308(sp)
     684:	13012b03          	lw	s6,304(sp)
     688:	12c12b83          	lw	s7,300(sp)
     68c:	12812c03          	lw	s8,296(sp)
     690:	12412c83          	lw	s9,292(sp)
     694:	12012d03          	lw	s10,288(sp)
     698:	11c12d83          	lw	s11,284(sp)
     69c:	6171                	addi	sp,sp,336
     69e:	8082                	ret
     6a0:	001b4f03          	lbu	t5,1(s6)
     6a4:	002b0793          	addi	a5,s6,2
     6a8:	01ec8023          	sb	t5,0(s9)
     6ac:	b5f1                	j	578 <vprintfmt.constprop.0+0xd4>
     6ae:	0001                	nop
     6b0:	8d7e                	mv	s10,t6
     6b2:	00174f83          	lbu	t6,1(a4)
     6b6:	875e                	mv	a4,s7
     6b8:	b759                	j	63e <vprintfmt.constprop.0+0x19a>
     6ba:	0001                	nop
     6bc:	4ca9                	li	s9,10
     6be:	c202                	sw	zero,4(sp)
     6c0:	4805                	li	a6,1
     6c2:	1aa84f63          	blt	a6,a0,880 <vprintfmt.constprop.0+0x3dc>
     6c6:	4722                	lw	a4,8(sp)
     6c8:	0711                	addi	a4,a4,4
     6ca:	45a2                	lw	a1,8(sp)
     6cc:	4981                	li	s3,0
     6ce:	0005ad83          	lw	s11,0(a1)
     6d2:	c43a                	sw	a4,8(sp)
     6d4:	8666                	mv	a2,s9
     6d6:	4681                	li	a3,0
     6d8:	856e                	mv	a0,s11
     6da:	85ce                	mv	a1,s3
     6dc:	19c060ef          	jal	ra,6878 <__umoddi3>
     6e0:	c82a                	sw	a0,16(sp)
     6e2:	4601                	li	a2,0
     6e4:	7b360b63          	beq	a2,s3,e9a <vprintfmt.constprop.0+0x9f6>
     6e8:	01410b13          	addi	s6,sp,20
     6ec:	4905                	li	s2,1
     6ee:	0001                	nop
     6f0:	8666                	mv	a2,s9
     6f2:	4681                	li	a3,0
     6f4:	856e                	mv	a0,s11
     6f6:	85ce                	mv	a1,s3
     6f8:	54d050ef          	jal	ra,6444 <__udivdi3>
     6fc:	8666                	mv	a2,s9
     6fe:	4681                	li	a3,0
     700:	8daa                	mv	s11,a0
     702:	89ae                	mv	s3,a1
     704:	174060ef          	jal	ra,6878 <__umoddi3>
     708:	4f92                	lw	t6,4(sp)
     70a:	00ab2023          	sw	a0,0(s6)
     70e:	0905                	addi	s2,s2,1
     710:	0b11                	addi	s6,s6,4
     712:	fd3f9fe3          	bne	t6,s3,6f0 <vprintfmt.constprop.0+0x24c>
     716:	fd9dfde3          	bgeu	s11,s9,6f0 <vprintfmt.constprop.0+0x24c>
     71a:	04000813          	li	a6,64
     71e:	f0000fb7          	lui	t6,0xf0000
     722:	03895263          	bge	s2,s8,746 <vprintfmt.constprop.0+0x2a2>
     726:	0001                	nop
     728:	04022783          	lw	a5,64(tp) # 40 <buflen.1937>
     72c:	00178513          	addi	a0,a5,1
     730:	00f48333          	add	t1,s1,a5
     734:	04a22023          	sw	a0,64(tp) # 40 <buflen.1937>
     738:	01a30023          	sb	s10,0(t1)
     73c:	07050463          	beq	a0,a6,7a4 <vprintfmt.constprop.0+0x300>
     740:	1c7d                	addi	s8,s8,-1
     742:	ff8943e3          	blt	s2,s8,728 <vprintfmt.constprop.0+0x284>
     746:	42b2                	lw	t0,12(sp)
     748:	00291c13          	slli	s8,s2,0x2
     74c:	11010d13          	addi	s10,sp,272
     750:	018d0533          	add	a0,s10,s8
     754:	efc50713          	addi	a4,a0,-260
     758:	00c10893          	addi	a7,sp,12
     75c:	4e25                	li	t3,9
     75e:	ff628f13          	addi	t5,t0,-10
     762:	4329                	li	t1,10
     764:	f00006b7          	lui	a3,0xf0000
     768:	04000e93          	li	t4,64
     76c:	d8e880e3          	beq	a7,a4,4ec <vprintfmt.constprop.0+0x48>
     770:	00072383          	lw	t2,0(a4)
     774:	03000093          	li	ra,48
     778:	007e7363          	bgeu	t3,t2,77e <vprintfmt.constprop.0+0x2da>
     77c:	80fa                	mv	ra,t5
     77e:	04022c83          	lw	s9,64(tp) # 40 <buflen.1937>
     782:	00138933          	add	s2,t2,ra
     786:	001c8813          	addi	a6,s9,1
     78a:	019487b3          	add	a5,s1,s9
     78e:	05022023          	sw	a6,64(tp) # 40 <buflen.1937>
     792:	01278023          	sb	s2,0(a5)
     796:	60690163          	beq	s2,t1,d98 <vprintfmt.constprop.0+0x8f4>
     79a:	61d80163          	beq	a6,t4,d9c <vprintfmt.constprop.0+0x8f8>
     79e:	1771                	addi	a4,a4,-4
     7a0:	b7f1                	j	76c <vprintfmt.constprop.0+0x2c8>
     7a2:	0001                	nop
     7a4:	409a06b3          	sub	a3,s4,s1
     7a8:	0076f893          	andi	a7,a3,7
     7ac:	8726                	mv	a4,s1
     7ae:	06088a63          	beqz	a7,822 <vprintfmt.constprop.0+0x37e>
     7b2:	4e05                	li	t3,1
     7b4:	07c88063          	beq	a7,t3,814 <vprintfmt.constprop.0+0x370>
     7b8:	4e89                	li	t4,2
     7ba:	05d88863          	beq	a7,t4,80a <vprintfmt.constprop.0+0x366>
     7be:	4f0d                	li	t5,3
     7c0:	05e88063          	beq	a7,t5,800 <vprintfmt.constprop.0+0x35c>
     7c4:	4291                	li	t0,4
     7c6:	02588863          	beq	a7,t0,7f6 <vprintfmt.constprop.0+0x352>
     7ca:	4395                	li	t2,5
     7cc:	02788063          	beq	a7,t2,7ec <vprintfmt.constprop.0+0x348>
     7d0:	4099                	li	ra,6
     7d2:	00188863          	beq	a7,ra,7e2 <vprintfmt.constprop.0+0x33e>
     7d6:	0004cc83          	lbu	s9,0(s1)
     7da:	00148713          	addi	a4,s1,1
     7de:	019f8023          	sb	s9,0(t6) # f0000000 <__C_STACK_TOP__+0xefff0000>
     7e2:	00074583          	lbu	a1,0(a4)
     7e6:	0705                	addi	a4,a4,1
     7e8:	00bf8023          	sb	a1,0(t6)
     7ec:	00074d83          	lbu	s11,0(a4)
     7f0:	0705                	addi	a4,a4,1
     7f2:	01bf8023          	sb	s11,0(t6)
     7f6:	00074603          	lbu	a2,0(a4)
     7fa:	0705                	addi	a4,a4,1
     7fc:	00cf8023          	sb	a2,0(t6)
     800:	00074983          	lbu	s3,0(a4)
     804:	0705                	addi	a4,a4,1
     806:	013f8023          	sb	s3,0(t6)
     80a:	00074b03          	lbu	s6,0(a4)
     80e:	0705                	addi	a4,a4,1
     810:	016f8023          	sb	s6,0(t6)
     814:	0705                	addi	a4,a4,1
     816:	fff74783          	lbu	a5,-1(a4)
     81a:	00ff8023          	sb	a5,0(t6)
     81e:	05470563          	beq	a4,s4,868 <vprintfmt.constprop.0+0x3c4>
     822:	00074503          	lbu	a0,0(a4)
     826:	0721                	addi	a4,a4,8
     828:	00af8023          	sb	a0,0(t6)
     82c:	ff974303          	lbu	t1,-7(a4)
     830:	006f8023          	sb	t1,0(t6)
     834:	ffa74683          	lbu	a3,-6(a4)
     838:	00df8023          	sb	a3,0(t6)
     83c:	ffb74883          	lbu	a7,-5(a4)
     840:	011f8023          	sb	a7,0(t6)
     844:	ffc74e03          	lbu	t3,-4(a4)
     848:	01cf8023          	sb	t3,0(t6)
     84c:	ffd74e83          	lbu	t4,-3(a4)
     850:	01df8023          	sb	t4,0(t6)
     854:	ffe74f03          	lbu	t5,-2(a4)
     858:	01ef8023          	sb	t5,0(t6)
     85c:	fff74283          	lbu	t0,-1(a4)
     860:	005f8023          	sb	t0,0(t6)
     864:	fb471fe3          	bne	a4,s4,822 <vprintfmt.constprop.0+0x37e>
     868:	04022023          	sw	zero,64(tp) # 40 <buflen.1937>
     86c:	1c7d                	addi	s8,s8,-1
     86e:	bdd1                	j	742 <vprintfmt.constprop.0+0x29e>
     870:	04100693          	li	a3,65
     874:	c202                	sw	zero,4(sp)
     876:	c636                	sw	a3,12(sp)
     878:	4805                	li	a6,1
     87a:	4cc1                	li	s9,16
     87c:	e4a855e3          	bge	a6,a0,6c6 <vprintfmt.constprop.0+0x222>
     880:	4e22                	lw	t3,8(sp)
     882:	007e0b13          	addi	s6,t3,7
     886:	ff8b7313          	andi	t1,s6,-8
     88a:	00830e93          	addi	t4,t1,8
     88e:	c476                	sw	t4,8(sp)
     890:	00032d83          	lw	s11,0(t1)
     894:	00432983          	lw	s3,4(t1)
     898:	bd35                	j	6d4 <vprintfmt.constprop.0+0x230>
     89a:	0001                	nop
     89c:	4d22                	lw	s10,8(sp)
     89e:	04022c03          	lw	s8,64(tp) # 40 <buflen.1937>
     8a2:	4ca9                	li	s9,10
     8a4:	000d2083          	lw	ra,0(s10)
     8a8:	018485b3          	add	a1,s1,s8
     8ac:	001c0693          	addi	a3,s8,1
     8b0:	00158023          	sb	ra,0(a1)
     8b4:	04d22023          	sw	a3,64(tp) # 40 <buflen.1937>
     8b8:	004d0593          	addi	a1,s10,4
     8bc:	179087e3          	beq	ra,s9,122a <vprintfmt.constprop.0+0xd86>
     8c0:	04000793          	li	a5,64
     8c4:	c42e                	sw	a1,8(sp)
     8c6:	c2f693e3          	bne	a3,a5,4ec <vprintfmt.constprop.0+0x48>
     8ca:	00020913          	mv	s2,tp
     8ce:	00190793          	addi	a5,s2,1
     8d2:	fff7cf03          	lbu	t5,-1(a5)
     8d6:	fff94813          	not	a6,s2
     8da:	f00008b7          	lui	a7,0xf0000
     8de:	01048733          	add	a4,s1,a6
     8e2:	40f48e33          	sub	t3,s1,a5
     8e6:	00d70b33          	add	s6,a4,a3
     8ea:	01e88023          	sb	t5,0(a7) # f0000000 <__C_STACK_TOP__+0xefff0000>
     8ee:	00de0333          	add	t1,t3,a3
     8f2:	007b7e93          	andi	t4,s6,7
     8f6:	0c605763          	blez	t1,9c4 <vprintfmt.constprop.0+0x520>
     8fa:	060e8e63          	beqz	t4,976 <vprintfmt.constprop.0+0x4d2>
     8fe:	4605                	li	a2,1
     900:	06ce8063          	beq	t4,a2,960 <vprintfmt.constprop.0+0x4bc>
     904:	4f89                	li	t6,2
     906:	05fe8863          	beq	t4,t6,956 <vprintfmt.constprop.0+0x4b2>
     90a:	450d                	li	a0,3
     90c:	04ae8063          	beq	t4,a0,94c <vprintfmt.constprop.0+0x4a8>
     910:	4291                	li	t0,4
     912:	025e8863          	beq	t4,t0,942 <vprintfmt.constprop.0+0x49e>
     916:	4d95                	li	s11,5
     918:	03be8063          	beq	t4,s11,938 <vprintfmt.constprop.0+0x494>
     91c:	4399                	li	t2,6
     91e:	007e8863          	beq	t4,t2,92e <vprintfmt.constprop.0+0x48a>
     922:	00194983          	lbu	s3,1(s2)
     926:	00290793          	addi	a5,s2,2
     92a:	01388023          	sb	s3,0(a7)
     92e:	0007cc03          	lbu	s8,0(a5)
     932:	0785                	addi	a5,a5,1
     934:	01888023          	sb	s8,0(a7)
     938:	0007cd03          	lbu	s10,0(a5)
     93c:	0785                	addi	a5,a5,1
     93e:	01a88023          	sb	s10,0(a7)
     942:	0007c083          	lbu	ra,0(a5)
     946:	0785                	addi	a5,a5,1
     948:	00188023          	sb	ra,0(a7)
     94c:	0007cc83          	lbu	s9,0(a5)
     950:	0785                	addi	a5,a5,1
     952:	01988023          	sb	s9,0(a7)
     956:	0007c903          	lbu	s2,0(a5)
     95a:	0785                	addi	a5,a5,1
     95c:	01288023          	sb	s2,0(a7)
     960:	0785                	addi	a5,a5,1
     962:	fff7cf03          	lbu	t5,-1(a5)
     966:	40f48833          	sub	a6,s1,a5
     96a:	00d80733          	add	a4,a6,a3
     96e:	01e88023          	sb	t5,0(a7)
     972:	04e05963          	blez	a4,9c4 <vprintfmt.constprop.0+0x520>
     976:	0007ce03          	lbu	t3,0(a5)
     97a:	07a1                	addi	a5,a5,8
     97c:	40f482b3          	sub	t0,s1,a5
     980:	01c88023          	sb	t3,0(a7)
     984:	ff97cb03          	lbu	s6,-7(a5)
     988:	00d28db3          	add	s11,t0,a3
     98c:	01688023          	sb	s6,0(a7)
     990:	ffa7c303          	lbu	t1,-6(a5)
     994:	00688023          	sb	t1,0(a7)
     998:	ffb7ce83          	lbu	t4,-5(a5)
     99c:	01d88023          	sb	t4,0(a7)
     9a0:	ffc7c603          	lbu	a2,-4(a5)
     9a4:	00c88023          	sb	a2,0(a7)
     9a8:	ffd7cf83          	lbu	t6,-3(a5)
     9ac:	01f88023          	sb	t6,0(a7)
     9b0:	ffe7c503          	lbu	a0,-2(a5)
     9b4:	00a88023          	sb	a0,0(a7)
     9b8:	fff7c383          	lbu	t2,-1(a5)
     9bc:	00788023          	sb	t2,0(a7)
     9c0:	fbb04be3          	bgtz	s11,976 <vprintfmt.constprop.0+0x4d2>
     9c4:	04022023          	sw	zero,64(tp) # 40 <buflen.1937>
     9c8:	c42e                	sw	a1,8(sp)
     9ca:	b60d                	j	4ec <vprintfmt.constprop.0+0x48>
     9cc:	4285                	li	t0,1
     9ce:	72a2c363          	blt	t0,a0,10f4 <vprintfmt.constprop.0+0xc50>
     9d2:	4ca2                	lw	s9,8(sp)
     9d4:	004c8693          	addi	a3,s9,4
     9d8:	04050de3          	beqz	a0,1232 <vprintfmt.constprop.0+0xd8e>
     9dc:	000ca383          	lw	t2,0(s9)
     9e0:	c436                	sw	a3,8(sp)
     9e2:	41f3d993          	srai	s3,t2,0x1f
     9e6:	7209c463          	bltz	s3,110e <vprintfmt.constprop.0+0xc6a>
     9ea:	8d9e                	mv	s11,t2
     9ec:	4ca9                	li	s9,10
     9ee:	c202                	sw	zero,4(sp)
     9f0:	b1d5                	j	6d4 <vprintfmt.constprop.0+0x230>
     9f2:	0001                	nop
     9f4:	00174f83          	lbu	t6,1(a4)
     9f8:	0505                	addi	a0,a0,1
     9fa:	875e                	mv	a4,s7
     9fc:	b189                	j	63e <vprintfmt.constprop.0+0x19a>
     9fe:	0001                	nop
     a00:	4ca1                	li	s9,8
     a02:	c202                	sw	zero,4(sp)
     a04:	b975                	j	6c0 <vprintfmt.constprop.0+0x21c>
     a06:	0001                	nop
     a08:	04022b03          	lw	s6,64(tp) # 40 <buflen.1937>
     a0c:	40a2                	lw	ra,8(sp)
     a0e:	03000613          	li	a2,48
     a12:	001b0313          	addi	t1,s6,1
     a16:	01648db3          	add	s11,s1,s6
     a1a:	04000c93          	li	s9,64
     a1e:	04622023          	sw	t1,64(tp) # 40 <buflen.1937>
     a22:	00cd8023          	sb	a2,0(s11)
     a26:	00408713          	addi	a4,ra,4
     a2a:	71930e63          	beq	t1,s9,1146 <vprintfmt.constprop.0+0xca2>
     a2e:	002b0f93          	addi	t6,s6,2
     a32:	006482b3          	add	t0,s1,t1
     a36:	07800693          	li	a3,120
     a3a:	05f22023          	sw	t6,64(tp) # 40 <buflen.1937>
     a3e:	00d28023          	sb	a3,0(t0)
     a42:	87a6                	mv	a5,s1
     a44:	1f9f94e3          	bne	t6,s9,142c <vprintfmt.constprop.0+0xf88>
     a48:	409a05b3          	sub	a1,s4,s1
     a4c:	0075f513          	andi	a0,a1,7
     a50:	f00008b7          	lui	a7,0xf0000
     a54:	c92d                	beqz	a0,ac6 <vprintfmt.constprop.0+0x622>
     a56:	4905                	li	s2,1
     a58:	07250063          	beq	a0,s2,ab8 <vprintfmt.constprop.0+0x614>
     a5c:	4f09                	li	t5,2
     a5e:	05e50863          	beq	a0,t5,aae <vprintfmt.constprop.0+0x60a>
     a62:	480d                	li	a6,3
     a64:	05050063          	beq	a0,a6,aa4 <vprintfmt.constprop.0+0x600>
     a68:	4991                	li	s3,4
     a6a:	03350863          	beq	a0,s3,a9a <vprintfmt.constprop.0+0x5f6>
     a6e:	4e15                	li	t3,5
     a70:	03c50063          	beq	a0,t3,a90 <vprintfmt.constprop.0+0x5ec>
     a74:	4e99                	li	t4,6
     a76:	01d50863          	beq	a0,t4,a86 <vprintfmt.constprop.0+0x5e2>
     a7a:	0004cb03          	lbu	s6,0(s1)
     a7e:	00148793          	addi	a5,s1,1
     a82:	01688023          	sb	s6,0(a7) # f0000000 <__C_STACK_TOP__+0xefff0000>
     a86:	0007c303          	lbu	t1,0(a5)
     a8a:	0785                	addi	a5,a5,1
     a8c:	00688023          	sb	t1,0(a7)
     a90:	0007cd83          	lbu	s11,0(a5)
     a94:	0785                	addi	a5,a5,1
     a96:	01b88023          	sb	s11,0(a7)
     a9a:	0007c603          	lbu	a2,0(a5)
     a9e:	0785                	addi	a5,a5,1
     aa0:	00c88023          	sb	a2,0(a7)
     aa4:	0007c083          	lbu	ra,0(a5)
     aa8:	0785                	addi	a5,a5,1
     aaa:	00188023          	sb	ra,0(a7)
     aae:	0007cf83          	lbu	t6,0(a5)
     ab2:	0785                	addi	a5,a5,1
     ab4:	01f88023          	sb	t6,0(a7)
     ab8:	0785                	addi	a5,a5,1
     aba:	fff7c283          	lbu	t0,-1(a5)
     abe:	00588023          	sb	t0,0(a7)
     ac2:	05478563          	beq	a5,s4,b0c <vprintfmt.constprop.0+0x668>
     ac6:	0007c683          	lbu	a3,0(a5)
     aca:	07a1                	addi	a5,a5,8
     acc:	00d88023          	sb	a3,0(a7)
     ad0:	ff97cc83          	lbu	s9,-7(a5)
     ad4:	01988023          	sb	s9,0(a7)
     ad8:	ffa7c383          	lbu	t2,-6(a5)
     adc:	00788023          	sb	t2,0(a7)
     ae0:	ffb7c583          	lbu	a1,-5(a5)
     ae4:	00b88023          	sb	a1,0(a7)
     ae8:	ffc7c503          	lbu	a0,-4(a5)
     aec:	00a88023          	sb	a0,0(a7)
     af0:	ffd7c903          	lbu	s2,-3(a5)
     af4:	01288023          	sb	s2,0(a7)
     af8:	ffe7cf03          	lbu	t5,-2(a5)
     afc:	01e88023          	sb	t5,0(a7)
     b00:	fff7c803          	lbu	a6,-1(a5)
     b04:	01088023          	sb	a6,0(a7)
     b08:	fb479fe3          	bne	a5,s4,ac6 <vprintfmt.constprop.0+0x622>
     b0c:	06100893          	li	a7,97
     b10:	04022023          	sw	zero,64(tp) # 40 <buflen.1937>
     b14:	4cc1                	li	s9,16
     b16:	c202                	sw	zero,4(sp)
     b18:	c646                	sw	a7,12(sp)
     b1a:	be45                	j	6ca <vprintfmt.constprop.0+0x226>
     b1c:	06100893          	li	a7,97
     b20:	4cc1                	li	s9,16
     b22:	c202                	sw	zero,4(sp)
     b24:	c646                	sw	a7,12(sp)
     b26:	be69                	j	6c0 <vprintfmt.constprop.0+0x21c>
     b28:	00174f03          	lbu	t5,1(a4)
     b2c:	fd0f8913          	addi	s2,t6,-48
     b30:	875e                	mv	a4,s7
     b32:	fd0f0993          	addi	s3,t5,-48
     b36:	8ffa                	mv	t6,t5
     b38:	03336463          	bltu	t1,s3,b60 <vprintfmt.constprop.0+0x6bc>
     b3c:	00291b93          	slli	s7,s2,0x2
     b40:	012b80b3          	add	ra,s7,s2
     b44:	0705                	addi	a4,a4,1
     b46:	00109c93          	slli	s9,ra,0x1
     b4a:	01ec8933          	add	s2,s9,t5
     b4e:	00074f03          	lbu	t5,0(a4)
     b52:	fd090913          	addi	s2,s2,-48
     b56:	fd0f0793          	addi	a5,t5,-48
     b5a:	8ffa                	mv	t6,t5
     b5c:	fef370e3          	bgeu	t1,a5,b3c <vprintfmt.constprop.0+0x698>
     b60:	ac0c5fe3          	bgez	s8,63e <vprintfmt.constprop.0+0x19a>
     b64:	8c4a                	mv	s8,s2
     b66:	597d                	li	s2,-1
     b68:	bcd9                	j	63e <vprintfmt.constprop.0+0x19a>
     b6a:	0001                	nop
     b6c:	04022f83          	lw	t6,64(tp) # 40 <buflen.1937>
     b70:	02500993          	li	s3,37
     b74:	04000913          	li	s2,64
     b78:	001f8d13          	addi	s10,t6,1
     b7c:	01f485b3          	add	a1,s1,t6
     b80:	05a22023          	sw	s10,64(tp) # 40 <buflen.1937>
     b84:	01358023          	sb	s3,0(a1)
     b88:	972d12e3          	bne	s10,s2,4ec <vprintfmt.constprop.0+0x48>
     b8c:	409a0733          	sub	a4,s4,s1
     b90:	00777513          	andi	a0,a4,7
     b94:	87a6                	mv	a5,s1
     b96:	f00008b7          	lui	a7,0xf0000
     b9a:	c92d                	beqz	a0,c0c <vprintfmt.constprop.0+0x768>
     b9c:	4685                	li	a3,1
     b9e:	06d50063          	beq	a0,a3,bfe <vprintfmt.constprop.0+0x75a>
     ba2:	4e09                	li	t3,2
     ba4:	05c50863          	beq	a0,t3,bf4 <vprintfmt.constprop.0+0x750>
     ba8:	4e8d                	li	t4,3
     baa:	05d50063          	beq	a0,t4,bea <vprintfmt.constprop.0+0x746>
     bae:	4f11                	li	t5,4
     bb0:	03e50863          	beq	a0,t5,be0 <vprintfmt.constprop.0+0x73c>
     bb4:	4295                	li	t0,5
     bb6:	02550063          	beq	a0,t0,bd6 <vprintfmt.constprop.0+0x732>
     bba:	4c19                	li	s8,6
     bbc:	01850863          	beq	a0,s8,bcc <vprintfmt.constprop.0+0x728>
     bc0:	0004c803          	lbu	a6,0(s1)
     bc4:	00148793          	addi	a5,s1,1
     bc8:	01088023          	sb	a6,0(a7) # f0000000 <__C_STACK_TOP__+0xefff0000>
     bcc:	0007c383          	lbu	t2,0(a5)
     bd0:	0785                	addi	a5,a5,1
     bd2:	00788023          	sb	t2,0(a7)
     bd6:	0007cd83          	lbu	s11,0(a5)
     bda:	0785                	addi	a5,a5,1
     bdc:	01b88023          	sb	s11,0(a7)
     be0:	0007c603          	lbu	a2,0(a5)
     be4:	0785                	addi	a5,a5,1
     be6:	00c88023          	sb	a2,0(a7)
     bea:	0007cb03          	lbu	s6,0(a5)
     bee:	0785                	addi	a5,a5,1
     bf0:	01688023          	sb	s6,0(a7)
     bf4:	0007c303          	lbu	t1,0(a5)
     bf8:	0785                	addi	a5,a5,1
     bfa:	00688023          	sb	t1,0(a7)
     bfe:	0785                	addi	a5,a5,1
     c00:	fff7c083          	lbu	ra,-1(a5)
     c04:	00188023          	sb	ra,0(a7)
     c08:	a14783e3          	beq	a5,s4,60e <vprintfmt.constprop.0+0x16a>
     c0c:	0007cc83          	lbu	s9,0(a5)
     c10:	07a1                	addi	a5,a5,8
     c12:	01988023          	sb	s9,0(a7)
     c16:	ff97cf83          	lbu	t6,-7(a5)
     c1a:	01f88023          	sb	t6,0(a7)
     c1e:	ffa7c903          	lbu	s2,-6(a5)
     c22:	01288023          	sb	s2,0(a7)
     c26:	ffb7cd03          	lbu	s10,-5(a5)
     c2a:	01a88023          	sb	s10,0(a7)
     c2e:	ffc7c583          	lbu	a1,-4(a5)
     c32:	00b88023          	sb	a1,0(a7)
     c36:	ffd7c983          	lbu	s3,-3(a5)
     c3a:	01388023          	sb	s3,0(a7)
     c3e:	ffe7c703          	lbu	a4,-2(a5)
     c42:	00e88023          	sb	a4,0(a7)
     c46:	fff7c503          	lbu	a0,-1(a5)
     c4a:	00a88023          	sb	a0,0(a7)
     c4e:	fb479fe3          	bne	a5,s4,c0c <vprintfmt.constprop.0+0x768>
     c52:	ba75                	j	60e <vprintfmt.constprop.0+0x16a>
     c54:	fffc4813          	not	a6,s8
     c58:	41f85393          	srai	t2,a6,0x1f
     c5c:	00174f83          	lbu	t6,1(a4)
     c60:	007c7c33          	and	s8,s8,t2
     c64:	875e                	mv	a4,s7
     c66:	bae1                	j	63e <vprintfmt.constprop.0+0x19a>
     c68:	40a2                	lw	ra,8(sp)
     c6a:	00174f83          	lbu	t6,1(a4)
     c6e:	875e                	mv	a4,s7
     c70:	00408c93          	addi	s9,ra,4
     c74:	0000a903          	lw	s2,0(ra)
     c78:	c466                	sw	s9,8(sp)
     c7a:	b5dd                	j	b60 <vprintfmt.constprop.0+0x6bc>
     c7c:	4322                	lw	t1,8(sp)
     c7e:	00032c83          	lw	s9,0(t1)
     c82:	00430b13          	addi	s6,t1,4
     c86:	780c8463          	beqz	s9,140e <vprintfmt.constprop.0+0xf6a>
     c8a:	21805c63          	blez	s8,ea2 <vprintfmt.constprop.0+0x9fe>
     c8e:	02d00513          	li	a0,45
     c92:	66ad1e63          	bne	s10,a0,130e <vprintfmt.constprop.0+0xe6a>
     c96:	000ccd03          	lbu	s10,0(s9)
     c9a:	8e6a                	mv	t3,s10
     c9c:	200d1863          	bnez	s10,eac <vprintfmt.constprop.0+0xa08>
     ca0:	ac81                	j	ef0 <vprintfmt.constprop.0+0xa4c>
     ca2:	0001                	nop
     ca4:	04022b83          	lw	s7,64(tp) # 40 <buflen.1937>
     ca8:	02500e93          	li	t4,37
     cac:	04000893          	li	a7,64
     cb0:	001b8693          	addi	a3,s7,1
     cb4:	01748e33          	add	t3,s1,s7
     cb8:	04d22023          	sw	a3,64(tp) # 40 <buflen.1937>
     cbc:	01de0023          	sb	t4,0(t3)
     cc0:	8bee                	mv	s7,s11
     cc2:	831695e3          	bne	a3,a7,4ec <vprintfmt.constprop.0+0x48>
     cc6:	409a0f33          	sub	t5,s4,s1
     cca:	007f7293          	andi	t0,t5,7
     cce:	87a6                	mv	a5,s1
     cd0:	f0000c37          	lui	s8,0xf0000
     cd4:	06028a63          	beqz	t0,d48 <vprintfmt.constprop.0+0x8a4>
     cd8:	4805                	li	a6,1
     cda:	07028063          	beq	t0,a6,d3a <vprintfmt.constprop.0+0x896>
     cde:	4389                	li	t2,2
     ce0:	04728863          	beq	t0,t2,d30 <vprintfmt.constprop.0+0x88c>
     ce4:	460d                	li	a2,3
     ce6:	04c28063          	beq	t0,a2,d26 <vprintfmt.constprop.0+0x882>
     cea:	4b11                	li	s6,4
     cec:	03628863          	beq	t0,s6,d1c <vprintfmt.constprop.0+0x878>
     cf0:	4315                	li	t1,5
     cf2:	02628063          	beq	t0,t1,d12 <vprintfmt.constprop.0+0x86e>
     cf6:	4099                	li	ra,6
     cf8:	00128863          	beq	t0,ra,d08 <vprintfmt.constprop.0+0x864>
     cfc:	0004cc83          	lbu	s9,0(s1)
     d00:	00148793          	addi	a5,s1,1
     d04:	019c0023          	sb	s9,0(s8) # f0000000 <__C_STACK_TOP__+0xefff0000>
     d08:	0007cf83          	lbu	t6,0(a5)
     d0c:	0785                	addi	a5,a5,1
     d0e:	01fc0023          	sb	t6,0(s8)
     d12:	0007c903          	lbu	s2,0(a5)
     d16:	0785                	addi	a5,a5,1
     d18:	012c0023          	sb	s2,0(s8)
     d1c:	0007cd03          	lbu	s10,0(a5)
     d20:	0785                	addi	a5,a5,1
     d22:	01ac0023          	sb	s10,0(s8)
     d26:	0007c583          	lbu	a1,0(a5)
     d2a:	0785                	addi	a5,a5,1
     d2c:	00bc0023          	sb	a1,0(s8)
     d30:	0007c983          	lbu	s3,0(a5)
     d34:	0785                	addi	a5,a5,1
     d36:	013c0023          	sb	s3,0(s8)
     d3a:	0785                	addi	a5,a5,1
     d3c:	fff7c703          	lbu	a4,-1(a5)
     d40:	00ec0023          	sb	a4,0(s8)
     d44:	05478563          	beq	a5,s4,d8e <vprintfmt.constprop.0+0x8ea>
     d48:	0007c503          	lbu	a0,0(a5)
     d4c:	07a1                	addi	a5,a5,8
     d4e:	00ac0023          	sb	a0,0(s8)
     d52:	ff97cb83          	lbu	s7,-7(a5)
     d56:	017c0023          	sb	s7,0(s8)
     d5a:	ffa7c883          	lbu	a7,-6(a5)
     d5e:	011c0023          	sb	a7,0(s8)
     d62:	ffb7c683          	lbu	a3,-5(a5)
     d66:	00dc0023          	sb	a3,0(s8)
     d6a:	ffc7ce03          	lbu	t3,-4(a5)
     d6e:	01cc0023          	sb	t3,0(s8)
     d72:	ffd7ce83          	lbu	t4,-3(a5)
     d76:	01dc0023          	sb	t4,0(s8)
     d7a:	ffe7cf03          	lbu	t5,-2(a5)
     d7e:	01ec0023          	sb	t5,0(s8)
     d82:	fff7c283          	lbu	t0,-1(a5)
     d86:	005c0023          	sb	t0,0(s8)
     d8a:	fb479fe3          	bne	a5,s4,d48 <vprintfmt.constprop.0+0x8a4>
     d8e:	04022023          	sw	zero,64(tp) # 40 <buflen.1937>
     d92:	8bee                	mv	s7,s11
     d94:	f58ff06f          	j	4ec <vprintfmt.constprop.0+0x48>
     d98:	0f005d63          	blez	a6,e92 <vprintfmt.constprop.0+0x9ee>
     d9c:	00020593          	mv	a1,tp
     da0:	00158793          	addi	a5,a1,1
     da4:	fff7cd83          	lbu	s11,-1(a5)
     da8:	fff5c613          	not	a2,a1
     dac:	00c489b3          	add	s3,s1,a2
     db0:	40f48b33          	sub	s6,s1,a5
     db4:	01098fb3          	add	t6,s3,a6
     db8:	01b68023          	sb	s11,0(a3) # f0000000 <__C_STACK_TOP__+0xefff0000>
     dbc:	010b0c33          	add	s8,s6,a6
     dc0:	007ffd13          	andi	s10,t6,7
     dc4:	0d805763          	blez	s8,e92 <vprintfmt.constprop.0+0x9ee>
     dc8:	060d0e63          	beqz	s10,e44 <vprintfmt.constprop.0+0x9a0>
     dcc:	4505                	li	a0,1
     dce:	06ad0063          	beq	s10,a0,e2e <vprintfmt.constprop.0+0x98a>
     dd2:	4289                	li	t0,2
     dd4:	045d0863          	beq	s10,t0,e24 <vprintfmt.constprop.0+0x980>
     dd8:	438d                	li	t2,3
     dda:	047d0063          	beq	s10,t2,e1a <vprintfmt.constprop.0+0x976>
     dde:	4091                	li	ra,4
     de0:	021d0863          	beq	s10,ra,e10 <vprintfmt.constprop.0+0x96c>
     de4:	4c95                	li	s9,5
     de6:	039d0063          	beq	s10,s9,e06 <vprintfmt.constprop.0+0x962>
     dea:	4919                	li	s2,6
     dec:	012d0863          	beq	s10,s2,dfc <vprintfmt.constprop.0+0x958>
     df0:	00258793          	addi	a5,a1,2
     df4:	0015c583          	lbu	a1,1(a1)
     df8:	00b68023          	sb	a1,0(a3)
     dfc:	0007cd83          	lbu	s11,0(a5)
     e00:	0785                	addi	a5,a5,1
     e02:	01b68023          	sb	s11,0(a3)
     e06:	0007c603          	lbu	a2,0(a5)
     e0a:	0785                	addi	a5,a5,1
     e0c:	00c68023          	sb	a2,0(a3)
     e10:	0007c983          	lbu	s3,0(a5)
     e14:	0785                	addi	a5,a5,1
     e16:	01368023          	sb	s3,0(a3)
     e1a:	0007cb03          	lbu	s6,0(a5)
     e1e:	0785                	addi	a5,a5,1
     e20:	01668023          	sb	s6,0(a3)
     e24:	0007cf83          	lbu	t6,0(a5)
     e28:	0785                	addi	a5,a5,1
     e2a:	01f68023          	sb	t6,0(a3)
     e2e:	0785                	addi	a5,a5,1
     e30:	fff7cc03          	lbu	s8,-1(a5)
     e34:	40f48d33          	sub	s10,s1,a5
     e38:	010d0533          	add	a0,s10,a6
     e3c:	01868023          	sb	s8,0(a3)
     e40:	04a05963          	blez	a0,e92 <vprintfmt.constprop.0+0x9ee>
     e44:	0007c283          	lbu	t0,0(a5)
     e48:	07a1                	addi	a5,a5,8
     e4a:	40f48633          	sub	a2,s1,a5
     e4e:	00568023          	sb	t0,0(a3)
     e52:	ff97c383          	lbu	t2,-7(a5)
     e56:	010609b3          	add	s3,a2,a6
     e5a:	00768023          	sb	t2,0(a3)
     e5e:	ffa7c083          	lbu	ra,-6(a5)
     e62:	00168023          	sb	ra,0(a3)
     e66:	ffb7cc83          	lbu	s9,-5(a5)
     e6a:	01968023          	sb	s9,0(a3)
     e6e:	ffc7c903          	lbu	s2,-4(a5)
     e72:	01268023          	sb	s2,0(a3)
     e76:	ffd7c583          	lbu	a1,-3(a5)
     e7a:	00b68023          	sb	a1,0(a3)
     e7e:	ffe7cd83          	lbu	s11,-2(a5)
     e82:	01b68023          	sb	s11,0(a3)
     e86:	fff7cb03          	lbu	s6,-1(a5)
     e8a:	01668023          	sb	s6,0(a3)
     e8e:	fb304be3          	bgtz	s3,e44 <vprintfmt.constprop.0+0x9a0>
     e92:	04022023          	sw	zero,64(tp) # 40 <buflen.1937>
     e96:	1771                	addi	a4,a4,-4
     e98:	b8d1                	j	76c <vprintfmt.constprop.0+0x2c8>
     e9a:	859df7e3          	bgeu	s11,s9,6e8 <vprintfmt.constprop.0+0x244>
     e9e:	4905                	li	s2,1
     ea0:	b8ad                	j	71a <vprintfmt.constprop.0+0x276>
     ea2:	000ccd03          	lbu	s10,0(s9)
     ea6:	8e6a                	mv	t3,s10
     ea8:	140d0263          	beqz	s10,fec <vprintfmt.constprop.0+0xb48>
     eac:	537d                	li	t1,-1
     eae:	4529                	li	a0,10
     eb0:	f0000db7          	lui	s11,0xf0000
     eb4:	04000893          	li	a7,64
     eb8:	00094563          	bltz	s2,ec2 <vprintfmt.constprop.0+0xa1e>
     ebc:	197d                	addi	s2,s2,-1
     ebe:	02690763          	beq	s2,t1,eec <vprintfmt.constprop.0+0xa48>
     ec2:	04022e83          	lw	t4,64(tp) # 40 <buflen.1937>
     ec6:	001e8f13          	addi	t5,t4,1
     eca:	01d48633          	add	a2,s1,t4
     ece:	05e22023          	sw	t5,64(tp) # 40 <buflen.1937>
     ed2:	01a60023          	sb	s10,0(a2)
     ed6:	10ae0f63          	beq	t3,a0,ff4 <vprintfmt.constprop.0+0xb50>
     eda:	111f0f63          	beq	t5,a7,ff8 <vprintfmt.constprop.0+0xb54>
     ede:	0c85                	addi	s9,s9,1
     ee0:	000ccd03          	lbu	s10,0(s9)
     ee4:	1c7d                	addi	s8,s8,-1
     ee6:	8e6a                	mv	t3,s10
     ee8:	fc0d18e3          	bnez	s10,eb8 <vprintfmt.constprop.0+0xa14>
     eec:	11805063          	blez	s8,fec <vprintfmt.constprop.0+0xb48>
     ef0:	02000c93          	li	s9,32
     ef4:	04000313          	li	t1,64
     ef8:	f0000db7          	lui	s11,0xf0000
     efc:	a029                	j	f06 <vprintfmt.constprop.0+0xa62>
     efe:	0001                	nop
     f00:	1c7d                	addi	s8,s8,-1
     f02:	0e0c0563          	beqz	s8,fec <vprintfmt.constprop.0+0xb48>
     f06:	04022503          	lw	a0,64(tp) # 40 <buflen.1937>
     f0a:	00150893          	addi	a7,a0,1
     f0e:	00a48933          	add	s2,s1,a0
     f12:	05122023          	sw	a7,64(tp) # 40 <buflen.1937>
     f16:	01990023          	sb	s9,0(s2)
     f1a:	fe6893e3          	bne	a7,t1,f00 <vprintfmt.constprop.0+0xa5c>
     f1e:	409a0f33          	sub	t5,s4,s1
     f22:	007f7813          	andi	a6,t5,7
     f26:	87a6                	mv	a5,s1
     f28:	06080a63          	beqz	a6,f9c <vprintfmt.constprop.0+0xaf8>
     f2c:	4985                	li	s3,1
     f2e:	07380063          	beq	a6,s3,f8e <vprintfmt.constprop.0+0xaea>
     f32:	4d09                	li	s10,2
     f34:	05a80863          	beq	a6,s10,f84 <vprintfmt.constprop.0+0xae0>
     f38:	4e0d                	li	t3,3
     f3a:	05c80063          	beq	a6,t3,f7a <vprintfmt.constprop.0+0xad6>
     f3e:	4e91                	li	t4,4
     f40:	03d80863          	beq	a6,t4,f70 <vprintfmt.constprop.0+0xacc>
     f44:	4615                	li	a2,5
     f46:	02c80063          	beq	a6,a2,f66 <vprintfmt.constprop.0+0xac2>
     f4a:	4099                	li	ra,6
     f4c:	00180863          	beq	a6,ra,f5c <vprintfmt.constprop.0+0xab8>
     f50:	0004cf83          	lbu	t6,0(s1)
     f54:	00148793          	addi	a5,s1,1
     f58:	01fd8023          	sb	t6,0(s11) # f0000000 <__C_STACK_TOP__+0xefff0000>
     f5c:	0007c703          	lbu	a4,0(a5)
     f60:	0785                	addi	a5,a5,1
     f62:	00ed8023          	sb	a4,0(s11)
     f66:	0007c283          	lbu	t0,0(a5)
     f6a:	0785                	addi	a5,a5,1
     f6c:	005d8023          	sb	t0,0(s11)
     f70:	0007c683          	lbu	a3,0(a5)
     f74:	0785                	addi	a5,a5,1
     f76:	00dd8023          	sb	a3,0(s11)
     f7a:	0007c383          	lbu	t2,0(a5)
     f7e:	0785                	addi	a5,a5,1
     f80:	007d8023          	sb	t2,0(s11)
     f84:	0007c583          	lbu	a1,0(a5)
     f88:	0785                	addi	a5,a5,1
     f8a:	00bd8023          	sb	a1,0(s11)
     f8e:	0785                	addi	a5,a5,1
     f90:	fff7c503          	lbu	a0,-1(a5)
     f94:	00ad8023          	sb	a0,0(s11)
     f98:	05478563          	beq	a5,s4,fe2 <vprintfmt.constprop.0+0xb3e>
     f9c:	0007c883          	lbu	a7,0(a5)
     fa0:	07a1                	addi	a5,a5,8
     fa2:	011d8023          	sb	a7,0(s11)
     fa6:	ff97c903          	lbu	s2,-7(a5)
     faa:	012d8023          	sb	s2,0(s11)
     fae:	ffa7cf03          	lbu	t5,-6(a5)
     fb2:	01ed8023          	sb	t5,0(s11)
     fb6:	ffb7c803          	lbu	a6,-5(a5)
     fba:	010d8023          	sb	a6,0(s11)
     fbe:	ffc7c983          	lbu	s3,-4(a5)
     fc2:	013d8023          	sb	s3,0(s11)
     fc6:	ffd7cd03          	lbu	s10,-3(a5)
     fca:	01ad8023          	sb	s10,0(s11)
     fce:	ffe7ce03          	lbu	t3,-2(a5)
     fd2:	01cd8023          	sb	t3,0(s11)
     fd6:	fff7ce83          	lbu	t4,-1(a5)
     fda:	01dd8023          	sb	t4,0(s11)
     fde:	fb479fe3          	bne	a5,s4,f9c <vprintfmt.constprop.0+0xaf8>
     fe2:	04022023          	sw	zero,64(tp) # 40 <buflen.1937>
     fe6:	1c7d                	addi	s8,s8,-1
     fe8:	f00c1fe3          	bnez	s8,f06 <vprintfmt.constprop.0+0xa62>
     fec:	c45a                	sw	s6,8(sp)
     fee:	cfeff06f          	j	4ec <vprintfmt.constprop.0+0x48>
     ff2:	0001                	nop
     ff4:	0fe05d63          	blez	t5,10ee <vprintfmt.constprop.0+0xc4a>
     ff8:	00020f93          	mv	t6,tp
     ffc:	001f8793          	addi	a5,t6,1
    1000:	fff7c083          	lbu	ra,-1(a5)
    1004:	ffffc713          	not	a4,t6
    1008:	00e486b3          	add	a3,s1,a4
    100c:	40f482b3          	sub	t0,s1,a5
    1010:	01e683b3          	add	t2,a3,t5
    1014:	001d8023          	sb	ra,0(s11)
    1018:	01e285b3          	add	a1,t0,t5
    101c:	0073f813          	andi	a6,t2,7
    1020:	0cb05763          	blez	a1,10ee <vprintfmt.constprop.0+0xc4a>
    1024:	06080e63          	beqz	a6,10a0 <vprintfmt.constprop.0+0xbfc>
    1028:	4985                	li	s3,1
    102a:	07380063          	beq	a6,s3,108a <vprintfmt.constprop.0+0xbe6>
    102e:	4d09                	li	s10,2
    1030:	05a80863          	beq	a6,s10,1080 <vprintfmt.constprop.0+0xbdc>
    1034:	4e0d                	li	t3,3
    1036:	05c80063          	beq	a6,t3,1076 <vprintfmt.constprop.0+0xbd2>
    103a:	4e91                	li	t4,4
    103c:	03d80863          	beq	a6,t4,106c <vprintfmt.constprop.0+0xbc8>
    1040:	4615                	li	a2,5
    1042:	02c80063          	beq	a6,a2,1062 <vprintfmt.constprop.0+0xbbe>
    1046:	4099                	li	ra,6
    1048:	00180863          	beq	a6,ra,1058 <vprintfmt.constprop.0+0xbb4>
    104c:	002f8793          	addi	a5,t6,2
    1050:	001fcf83          	lbu	t6,1(t6)
    1054:	01fd8023          	sb	t6,0(s11)
    1058:	0007c703          	lbu	a4,0(a5)
    105c:	0785                	addi	a5,a5,1
    105e:	00ed8023          	sb	a4,0(s11)
    1062:	0007c683          	lbu	a3,0(a5)
    1066:	0785                	addi	a5,a5,1
    1068:	00dd8023          	sb	a3,0(s11)
    106c:	0007c283          	lbu	t0,0(a5)
    1070:	0785                	addi	a5,a5,1
    1072:	005d8023          	sb	t0,0(s11)
    1076:	0007c383          	lbu	t2,0(a5)
    107a:	0785                	addi	a5,a5,1
    107c:	007d8023          	sb	t2,0(s11)
    1080:	0007c583          	lbu	a1,0(a5)
    1084:	0785                	addi	a5,a5,1
    1086:	00bd8023          	sb	a1,0(s11)
    108a:	0785                	addi	a5,a5,1
    108c:	fff7c803          	lbu	a6,-1(a5)
    1090:	40f489b3          	sub	s3,s1,a5
    1094:	01e98d33          	add	s10,s3,t5
    1098:	010d8023          	sb	a6,0(s11)
    109c:	05a05963          	blez	s10,10ee <vprintfmt.constprop.0+0xc4a>
    10a0:	0007ce03          	lbu	t3,0(a5)
    10a4:	07a1                	addi	a5,a5,8
    10a6:	40f486b3          	sub	a3,s1,a5
    10aa:	01cd8023          	sb	t3,0(s11)
    10ae:	ff97ce83          	lbu	t4,-7(a5)
    10b2:	01e683b3          	add	t2,a3,t5
    10b6:	01dd8023          	sb	t4,0(s11)
    10ba:	ffa7c603          	lbu	a2,-6(a5)
    10be:	00cd8023          	sb	a2,0(s11)
    10c2:	ffb7c083          	lbu	ra,-5(a5)
    10c6:	001d8023          	sb	ra,0(s11)
    10ca:	ffc7cf83          	lbu	t6,-4(a5)
    10ce:	01fd8023          	sb	t6,0(s11)
    10d2:	ffd7c703          	lbu	a4,-3(a5)
    10d6:	00ed8023          	sb	a4,0(s11)
    10da:	ffe7c283          	lbu	t0,-2(a5)
    10de:	005d8023          	sb	t0,0(s11)
    10e2:	fff7c583          	lbu	a1,-1(a5)
    10e6:	00bd8023          	sb	a1,0(s11)
    10ea:	fa704be3          	bgtz	t2,10a0 <vprintfmt.constprop.0+0xbfc>
    10ee:	04022023          	sw	zero,64(tp) # 40 <buflen.1937>
    10f2:	b3f5                	j	ede <vprintfmt.constprop.0+0xa3a>
    10f4:	45a2                	lw	a1,8(sp)
    10f6:	00758793          	addi	a5,a1,7
    10fa:	ff87f913          	andi	s2,a5,-8
    10fe:	00890f13          	addi	t5,s2,8
    1102:	c47a                	sw	t5,8(sp)
    1104:	00092383          	lw	t2,0(s2)
    1108:	00492983          	lw	s3,4(s2)
    110c:	b8e9                	j	9e6 <vprintfmt.constprop.0+0x542>
    110e:	04022803          	lw	a6,64(tp) # 40 <buflen.1937>
    1112:	02d00313          	li	t1,45
    1116:	04000893          	li	a7,64
    111a:	00180e13          	addi	t3,a6,1
    111e:	01048b33          	add	s6,s1,a6
    1122:	05c22023          	sw	t3,64(tp) # 40 <buflen.1937>
    1126:	006b0023          	sb	t1,0(s6)
    112a:	111e0763          	beq	t3,a7,1238 <vprintfmt.constprop.0+0xd94>
    112e:	40700db3          	neg	s11,t2
    1132:	01b033b3          	snez	t2,s11
    1136:	413009b3          	neg	s3,s3
    113a:	407989b3          	sub	s3,s3,t2
    113e:	4ca9                	li	s9,10
    1140:	c202                	sw	zero,4(sp)
    1142:	d92ff06f          	j	6d4 <vprintfmt.constprop.0+0x230>
    1146:	409a09b3          	sub	s3,s4,s1
    114a:	0079fe13          	andi	t3,s3,7
    114e:	87a6                	mv	a5,s1
    1150:	f0000eb7          	lui	t4,0xf0000
    1154:	060e0a63          	beqz	t3,11c8 <vprintfmt.constprop.0+0xd24>
    1158:	4b05                	li	s6,1
    115a:	076e0063          	beq	t3,s6,11ba <vprintfmt.constprop.0+0xd16>
    115e:	4309                	li	t1,2
    1160:	046e0863          	beq	t3,t1,11b0 <vprintfmt.constprop.0+0xd0c>
    1164:	4d8d                	li	s11,3
    1166:	05be0063          	beq	t3,s11,11a6 <vprintfmt.constprop.0+0xd02>
    116a:	4611                	li	a2,4
    116c:	02ce0863          	beq	t3,a2,119c <vprintfmt.constprop.0+0xcf8>
    1170:	4095                	li	ra,5
    1172:	021e0063          	beq	t3,ra,1192 <vprintfmt.constprop.0+0xcee>
    1176:	4f99                	li	t6,6
    1178:	01fe0863          	beq	t3,t6,1188 <vprintfmt.constprop.0+0xce4>
    117c:	0004c283          	lbu	t0,0(s1)
    1180:	00148793          	addi	a5,s1,1
    1184:	005e8023          	sb	t0,0(t4) # f0000000 <__C_STACK_TOP__+0xefff0000>
    1188:	0007c683          	lbu	a3,0(a5)
    118c:	0785                	addi	a5,a5,1
    118e:	00de8023          	sb	a3,0(t4)
    1192:	0007cc83          	lbu	s9,0(a5)
    1196:	0785                	addi	a5,a5,1
    1198:	019e8023          	sb	s9,0(t4)
    119c:	0007c383          	lbu	t2,0(a5)
    11a0:	0785                	addi	a5,a5,1
    11a2:	007e8023          	sb	t2,0(t4)
    11a6:	0007c583          	lbu	a1,0(a5)
    11aa:	0785                	addi	a5,a5,1
    11ac:	00be8023          	sb	a1,0(t4)
    11b0:	0007c503          	lbu	a0,0(a5)
    11b4:	0785                	addi	a5,a5,1
    11b6:	00ae8023          	sb	a0,0(t4)
    11ba:	0785                	addi	a5,a5,1
    11bc:	fff7c903          	lbu	s2,-1(a5)
    11c0:	012e8023          	sb	s2,0(t4)
    11c4:	05478563          	beq	a5,s4,120e <vprintfmt.constprop.0+0xd6a>
    11c8:	0007cf03          	lbu	t5,0(a5)
    11cc:	07a1                	addi	a5,a5,8
    11ce:	01ee8023          	sb	t5,0(t4)
    11d2:	ff97c803          	lbu	a6,-7(a5)
    11d6:	010e8023          	sb	a6,0(t4)
    11da:	ffa7c883          	lbu	a7,-6(a5)
    11de:	011e8023          	sb	a7,0(t4)
    11e2:	ffb7c983          	lbu	s3,-5(a5)
    11e6:	013e8023          	sb	s3,0(t4)
    11ea:	ffc7ce03          	lbu	t3,-4(a5)
    11ee:	01ce8023          	sb	t3,0(t4)
    11f2:	ffd7cb03          	lbu	s6,-3(a5)
    11f6:	016e8023          	sb	s6,0(t4)
    11fa:	ffe7c303          	lbu	t1,-2(a5)
    11fe:	006e8023          	sb	t1,0(t4)
    1202:	fff7cd83          	lbu	s11,-1(a5)
    1206:	01be8023          	sb	s11,0(t4)
    120a:	fb479fe3          	bne	a5,s4,11c8 <vprintfmt.constprop.0+0xd24>
    120e:	4e85                	li	t4,1
    1210:	07800613          	li	a2,120
    1214:	06100093          	li	ra,97
    1218:	05d22023          	sw	t4,64(tp) # 40 <buflen.1937>
    121c:	00c48023          	sb	a2,0(s1)
    1220:	4cc1                	li	s9,16
    1222:	c202                	sw	zero,4(sp)
    1224:	c606                	sw	ra,12(sp)
    1226:	ca4ff06f          	j	6ca <vprintfmt.constprop.0+0x226>
    122a:	ead04063          	bgtz	a3,8ca <vprintfmt.constprop.0+0x426>
    122e:	f96ff06f          	j	9c4 <vprintfmt.constprop.0+0x520>
    1232:	4ca2                	lw	s9,8(sp)
    1234:	fa8ff06f          	j	9dc <vprintfmt.constprop.0+0x538>
    1238:	409a0db3          	sub	s11,s4,s1
    123c:	007dfe93          	andi	t4,s11,7
    1240:	8726                	mv	a4,s1
    1242:	f00000b7          	lui	ra,0xf0000
    1246:	060e8a63          	beqz	t4,12ba <vprintfmt.constprop.0+0xe16>
    124a:	4605                	li	a2,1
    124c:	06ce8063          	beq	t4,a2,12ac <vprintfmt.constprop.0+0xe08>
    1250:	4f89                	li	t6,2
    1252:	05fe8863          	beq	t4,t6,12a2 <vprintfmt.constprop.0+0xdfe>
    1256:	450d                	li	a0,3
    1258:	04ae8063          	beq	t4,a0,1298 <vprintfmt.constprop.0+0xdf4>
    125c:	4291                	li	t0,4
    125e:	025e8863          	beq	t4,t0,128e <vprintfmt.constprop.0+0xdea>
    1262:	4695                	li	a3,5
    1264:	02de8063          	beq	t4,a3,1284 <vprintfmt.constprop.0+0xde0>
    1268:	4c99                	li	s9,6
    126a:	019e8863          	beq	t4,s9,127a <vprintfmt.constprop.0+0xdd6>
    126e:	0004c583          	lbu	a1,0(s1)
    1272:	00148713          	addi	a4,s1,1
    1276:	00b08023          	sb	a1,0(ra) # f0000000 <__C_STACK_TOP__+0xefff0000>
    127a:	00074783          	lbu	a5,0(a4)
    127e:	0705                	addi	a4,a4,1
    1280:	00f08023          	sb	a5,0(ra)
    1284:	00074903          	lbu	s2,0(a4)
    1288:	0705                	addi	a4,a4,1
    128a:	01208023          	sb	s2,0(ra)
    128e:	00074f03          	lbu	t5,0(a4)
    1292:	0705                	addi	a4,a4,1
    1294:	01e08023          	sb	t5,0(ra)
    1298:	00074803          	lbu	a6,0(a4)
    129c:	0705                	addi	a4,a4,1
    129e:	01008023          	sb	a6,0(ra)
    12a2:	00074883          	lbu	a7,0(a4)
    12a6:	0705                	addi	a4,a4,1
    12a8:	01108023          	sb	a7,0(ra)
    12ac:	0705                	addi	a4,a4,1
    12ae:	fff74e03          	lbu	t3,-1(a4)
    12b2:	01c08023          	sb	t3,0(ra)
    12b6:	05470563          	beq	a4,s4,1300 <vprintfmt.constprop.0+0xe5c>
    12ba:	00074b03          	lbu	s6,0(a4)
    12be:	0721                	addi	a4,a4,8
    12c0:	01608023          	sb	s6,0(ra)
    12c4:	ff974303          	lbu	t1,-7(a4)
    12c8:	00608023          	sb	t1,0(ra)
    12cc:	ffa74d83          	lbu	s11,-6(a4)
    12d0:	01b08023          	sb	s11,0(ra)
    12d4:	ffb74e83          	lbu	t4,-5(a4)
    12d8:	01d08023          	sb	t4,0(ra)
    12dc:	ffc74603          	lbu	a2,-4(a4)
    12e0:	00c08023          	sb	a2,0(ra)
    12e4:	ffd74f83          	lbu	t6,-3(a4)
    12e8:	01f08023          	sb	t6,0(ra)
    12ec:	ffe74503          	lbu	a0,-2(a4)
    12f0:	00a08023          	sb	a0,0(ra)
    12f4:	fff74283          	lbu	t0,-1(a4)
    12f8:	00508023          	sb	t0,0(ra)
    12fc:	fb471fe3          	bne	a4,s4,12ba <vprintfmt.constprop.0+0xe16>
    1300:	04022023          	sw	zero,64(tp) # 40 <buflen.1937>
    1304:	b52d                	j	112e <vprintfmt.constprop.0+0xc8a>
    1306:	00007db7          	lui	s11,0x7
    130a:	cb0d8c93          	addi	s9,s11,-848 # 6cb0 <__umoddi3+0x438>
    130e:	85ca                	mv	a1,s2
    1310:	8566                	mv	a0,s9
    1312:	4b7040ef          	jal	ra,5fc8 <strnlen>
    1316:	40ac0c33          	sub	s8,s8,a0
    131a:	b98054e3          	blez	s8,ea2 <vprintfmt.constprop.0+0x9fe>
    131e:	04000e13          	li	t3,64
    1322:	f0000eb7          	lui	t4,0xf0000
    1326:	a021                	j	132e <vprintfmt.constprop.0+0xe8a>
    1328:	1c7d                	addi	s8,s8,-1
    132a:	b60c0ce3          	beqz	s8,ea2 <vprintfmt.constprop.0+0x9fe>
    132e:	04022f03          	lw	t5,64(tp) # 40 <buflen.1937>
    1332:	001f0f93          	addi	t6,t5,1
    1336:	01e487b3          	add	a5,s1,t5
    133a:	05f22023          	sw	t6,64(tp) # 40 <buflen.1937>
    133e:	01a78023          	sb	s10,0(a5)
    1342:	ffcf93e3          	bne	t6,t3,1328 <vprintfmt.constprop.0+0xe84>
    1346:	409a00b3          	sub	ra,s4,s1
    134a:	0070f713          	andi	a4,ra,7
    134e:	8fa6                	mv	t6,s1
    1350:	cb2d                	beqz	a4,13c2 <vprintfmt.constprop.0+0xf1e>
    1352:	4685                	li	a3,1
    1354:	06d70063          	beq	a4,a3,13b4 <vprintfmt.constprop.0+0xf10>
    1358:	4289                	li	t0,2
    135a:	04570863          	beq	a4,t0,13aa <vprintfmt.constprop.0+0xf06>
    135e:	438d                	li	t2,3
    1360:	04770063          	beq	a4,t2,13a0 <vprintfmt.constprop.0+0xefc>
    1364:	4591                	li	a1,4
    1366:	02b70863          	beq	a4,a1,1396 <vprintfmt.constprop.0+0xef2>
    136a:	4815                	li	a6,5
    136c:	03070063          	beq	a4,a6,138c <vprintfmt.constprop.0+0xee8>
    1370:	4999                	li	s3,6
    1372:	01370863          	beq	a4,s3,1382 <vprintfmt.constprop.0+0xede>
    1376:	0004c303          	lbu	t1,0(s1)
    137a:	00148f93          	addi	t6,s1,1
    137e:	006e8023          	sb	t1,0(t4) # f0000000 <__C_STACK_TOP__+0xefff0000>
    1382:	000fc503          	lbu	a0,0(t6)
    1386:	0f85                	addi	t6,t6,1
    1388:	00ae8023          	sb	a0,0(t4)
    138c:	000fc603          	lbu	a2,0(t6)
    1390:	0f85                	addi	t6,t6,1
    1392:	00ce8023          	sb	a2,0(t4)
    1396:	000fc883          	lbu	a7,0(t6)
    139a:	0f85                	addi	t6,t6,1
    139c:	011e8023          	sb	a7,0(t4)
    13a0:	000fcd83          	lbu	s11,0(t6)
    13a4:	0f85                	addi	t6,t6,1
    13a6:	01be8023          	sb	s11,0(t4)
    13aa:	000fcf03          	lbu	t5,0(t6)
    13ae:	0f85                	addi	t6,t6,1
    13b0:	01ee8023          	sb	t5,0(t4)
    13b4:	0f85                	addi	t6,t6,1
    13b6:	ffffc783          	lbu	a5,-1(t6)
    13ba:	00fe8023          	sb	a5,0(t4)
    13be:	054f8563          	beq	t6,s4,1408 <vprintfmt.constprop.0+0xf64>
    13c2:	000fc083          	lbu	ra,0(t6)
    13c6:	0fa1                	addi	t6,t6,8
    13c8:	001e8023          	sb	ra,0(t4)
    13cc:	ff9fc703          	lbu	a4,-7(t6)
    13d0:	00ee8023          	sb	a4,0(t4)
    13d4:	ffafc683          	lbu	a3,-6(t6)
    13d8:	00de8023          	sb	a3,0(t4)
    13dc:	ffbfc283          	lbu	t0,-5(t6)
    13e0:	005e8023          	sb	t0,0(t4)
    13e4:	ffcfc383          	lbu	t2,-4(t6)
    13e8:	007e8023          	sb	t2,0(t4)
    13ec:	ffdfc583          	lbu	a1,-3(t6)
    13f0:	00be8023          	sb	a1,0(t4)
    13f4:	ffefc803          	lbu	a6,-2(t6)
    13f8:	010e8023          	sb	a6,0(t4)
    13fc:	ffffc983          	lbu	s3,-1(t6)
    1400:	013e8023          	sb	s3,0(t4)
    1404:	fb4f9fe3          	bne	t6,s4,13c2 <vprintfmt.constprop.0+0xf1e>
    1408:	04022023          	sw	zero,64(tp) # 40 <buflen.1937>
    140c:	bf31                	j	1328 <vprintfmt.constprop.0+0xe84>
    140e:	01805663          	blez	s8,141a <vprintfmt.constprop.0+0xf76>
    1412:	02d00613          	li	a2,45
    1416:	eecd18e3          	bne	s10,a2,1306 <vprintfmt.constprop.0+0xe62>
    141a:	000078b7          	lui	a7,0x7
    141e:	cb088c93          	addi	s9,a7,-848 # 6cb0 <__umoddi3+0x438>
    1422:	02800d13          	li	s10,40
    1426:	02800e13          	li	t3,40
    142a:	b449                	j	eac <vprintfmt.constprop.0+0xa08>
    142c:	06100393          	li	t2,97
    1430:	4cc1                	li	s9,16
    1432:	c202                	sw	zero,4(sp)
    1434:	c61e                	sw	t2,12(sp)
    1436:	a94ff06f          	j	6ca <vprintfmt.constprop.0+0x226>
    143a:	0001                	nop

0000143c <putchar>:
    143c:	04022603          	lw	a2,64(tp) # 40 <buflen.1937>
    1440:	00020293          	mv	t0,tp
    1444:	00160593          	addi	a1,a2,1
    1448:	00c28333          	add	t1,t0,a2
    144c:	04b22023          	sw	a1,64(tp) # 40 <buflen.1937>
    1450:	00a30023          	sb	a0,0(t1)
    1454:	43a9                	li	t2,10
    1456:	00750963          	beq	a0,t2,1468 <putchar+0x2c>
    145a:	04000513          	li	a0,64
    145e:	00a58763          	beq	a1,a0,146c <putchar+0x30>
    1462:	4501                	li	a0,0
    1464:	8082                	ret
    1466:	0001                	nop
    1468:	0eb05d63          	blez	a1,1562 <putchar+0x126>
    146c:	00020e13          	mv	t3,tp
    1470:	001e0793          	addi	a5,t3,1
    1474:	fff7ce83          	lbu	t4,-1(a5)
    1478:	fffe4f13          	not	t5,t3
    147c:	f0000fb7          	lui	t6,0xf0000
    1480:	01ee06b3          	add	a3,t3,t5
    1484:	00b68633          	add	a2,a3,a1
    1488:	01df8023          	sb	t4,0(t6) # f0000000 <__C_STACK_TOP__+0xefff0000>
    148c:	fff58713          	addi	a4,a1,-1
    1490:	00767293          	andi	t0,a2,7
    1494:	0ce05763          	blez	a4,1562 <putchar+0x126>
    1498:	06028e63          	beqz	t0,1514 <putchar+0xd8>
    149c:	4305                	li	t1,1
    149e:	06628063          	beq	t0,t1,14fe <putchar+0xc2>
    14a2:	4389                	li	t2,2
    14a4:	04728863          	beq	t0,t2,14f4 <putchar+0xb8>
    14a8:	450d                	li	a0,3
    14aa:	04a28063          	beq	t0,a0,14ea <putchar+0xae>
    14ae:	4891                	li	a7,4
    14b0:	03128863          	beq	t0,a7,14e0 <putchar+0xa4>
    14b4:	4e95                	li	t4,5
    14b6:	03d28063          	beq	t0,t4,14d6 <putchar+0x9a>
    14ba:	4f19                	li	t5,6
    14bc:	01e28863          	beq	t0,t5,14cc <putchar+0x90>
    14c0:	001e4683          	lbu	a3,1(t3)
    14c4:	002e0793          	addi	a5,t3,2
    14c8:	00df8023          	sb	a3,0(t6)
    14cc:	0007c603          	lbu	a2,0(a5)
    14d0:	0785                	addi	a5,a5,1
    14d2:	00cf8023          	sb	a2,0(t6)
    14d6:	0007c703          	lbu	a4,0(a5)
    14da:	0785                	addi	a5,a5,1
    14dc:	00ef8023          	sb	a4,0(t6)
    14e0:	0007c283          	lbu	t0,0(a5)
    14e4:	0785                	addi	a5,a5,1
    14e6:	005f8023          	sb	t0,0(t6)
    14ea:	0007c303          	lbu	t1,0(a5)
    14ee:	0785                	addi	a5,a5,1
    14f0:	006f8023          	sb	t1,0(t6)
    14f4:	0007c383          	lbu	t2,0(a5)
    14f8:	0785                	addi	a5,a5,1
    14fa:	007f8023          	sb	t2,0(t6)
    14fe:	0785                	addi	a5,a5,1
    1500:	fff7c503          	lbu	a0,-1(a5)
    1504:	40fe08b3          	sub	a7,t3,a5
    1508:	00b88eb3          	add	t4,a7,a1
    150c:	00af8023          	sb	a0,0(t6)
    1510:	05d05963          	blez	t4,1562 <putchar+0x126>
    1514:	0007cf03          	lbu	t5,0(a5)
    1518:	07a1                	addi	a5,a5,8
    151a:	40fe0533          	sub	a0,t3,a5
    151e:	01ef8023          	sb	t5,0(t6)
    1522:	ff97c683          	lbu	a3,-7(a5)
    1526:	00b508b3          	add	a7,a0,a1
    152a:	00df8023          	sb	a3,0(t6)
    152e:	ffa7c603          	lbu	a2,-6(a5)
    1532:	00cf8023          	sb	a2,0(t6)
    1536:	ffb7c703          	lbu	a4,-5(a5)
    153a:	00ef8023          	sb	a4,0(t6)
    153e:	ffc7c283          	lbu	t0,-4(a5)
    1542:	005f8023          	sb	t0,0(t6)
    1546:	ffd7c303          	lbu	t1,-3(a5)
    154a:	006f8023          	sb	t1,0(t6)
    154e:	ffe7c383          	lbu	t2,-2(a5)
    1552:	007f8023          	sb	t2,0(t6)
    1556:	fff7ce83          	lbu	t4,-1(a5)
    155a:	01df8023          	sb	t4,0(t6)
    155e:	fb104be3          	bgtz	a7,1514 <putchar+0xd8>
    1562:	04022023          	sw	zero,64(tp) # 40 <buflen.1937>
    1566:	4501                	li	a0,0
    1568:	8082                	ret
    156a:	0001                	nop

0000156c <sc_printf>:
    156c:	7139                	addi	sp,sp,-64
    156e:	02410313          	addi	t1,sp,36
    1572:	d22e                	sw	a1,36(sp)
    1574:	859a                	mv	a1,t1
    1576:	ce06                	sw	ra,28(sp)
    1578:	d432                	sw	a2,40(sp)
    157a:	d636                	sw	a3,44(sp)
    157c:	d83a                	sw	a4,48(sp)
    157e:	da3e                	sw	a5,52(sp)
    1580:	dc42                	sw	a6,56(sp)
    1582:	de46                	sw	a7,60(sp)
    1584:	c61a                	sw	t1,12(sp)
    1586:	f1ffe0ef          	jal	ra,4a4 <vprintfmt.constprop.0>
    158a:	40f2                	lw	ra,28(sp)
    158c:	4501                	li	a0,0
    158e:	6121                	addi	sp,sp,64
    1590:	8082                	ret
	...

00001594 <calc_func>:
    1594:	1101                	addi	sp,sp,-32
    1596:	cc22                	sw	s0,24(sp)
    1598:	00051403          	lh	s0,0(a0)
    159c:	ce06                	sw	ra,28(sp)
    159e:	ca26                	sw	s1,20(sp)
    15a0:	40745793          	srai	a5,s0,0x7
    15a4:	c84a                	sw	s2,16(sp)
    15a6:	c64e                	sw	s3,12(sp)
    15a8:	0017f093          	andi	ra,a5,1
    15ac:	07f47e93          	andi	t4,s0,127
    15b0:	04009863          	bnez	ra,1600 <calc_func+0x6c>
    15b4:	84ae                	mv	s1,a1
    15b6:	40345593          	srai	a1,s0,0x3
    15ba:	00f5f293          	andi	t0,a1,15
    15be:	00429313          	slli	t1,t0,0x4
    15c2:	00747713          	andi	a4,s0,7
    15c6:	89aa                	mv	s3,a0
    15c8:	005365b3          	or	a1,t1,t0
    15cc:	0384d783          	lhu	a5,56(s1)
    15d0:	c321                	beqz	a4,1610 <calc_func+0x7c>
    15d2:	4505                	li	a0,1
    15d4:	06a70c63          	beq	a4,a0,164c <calc_func+0xb8>
    15d8:	01041e13          	slli	t3,s0,0x10
    15dc:	010e5513          	srli	a0,t3,0x10
    15e0:	8922                	mv	s2,s0
    15e2:	85be                	mv	a1,a5
    15e4:	2f9030ef          	jal	ra,50dc <crcu16>
    15e8:	f0047f13          	andi	t5,s0,-256
    15ec:	07f97e93          	andi	t4,s2,127
    15f0:	01eeefb3          	or	t6,t4,t5
    15f4:	02a49c23          	sh	a0,56(s1)
    15f8:	080fe413          	ori	s0,t6,128
    15fc:	00899023          	sh	s0,0(s3)
    1600:	40f2                	lw	ra,28(sp)
    1602:	4462                	lw	s0,24(sp)
    1604:	44d2                	lw	s1,20(sp)
    1606:	4942                	lw	s2,16(sp)
    1608:	49b2                	lw	s3,12(sp)
    160a:	8576                	mv	a0,t4
    160c:	6105                	addi	sp,sp,32
    160e:	8082                	ret
    1610:	02200693          	li	a3,34
    1614:	83ae                	mv	t2,a1
    1616:	00d5d463          	bge	a1,a3,161e <calc_func+0x8a>
    161a:	02200393          	li	t2,34
    161e:	00049603          	lh	a2,0(s1)
    1622:	00249683          	lh	a3,2(s1)
    1626:	48cc                	lw	a1,20(s1)
    1628:	4c88                	lw	a0,24(s1)
    162a:	0ff3f713          	andi	a4,t2,255
    162e:	053040ef          	jal	ra,5e80 <core_bench_state>
    1632:	03e4d603          	lhu	a2,62(s1)
    1636:	01051913          	slli	s2,a0,0x10
    163a:	41095913          	srai	s2,s2,0x10
    163e:	e219                	bnez	a2,1644 <calc_func+0xb0>
    1640:	02a49f23          	sh	a0,62(s1)
    1644:	0384d783          	lhu	a5,56(s1)
    1648:	bf69                	j	15e2 <calc_func+0x4e>
    164a:	0001                	nop
    164c:	863e                	mv	a2,a5
    164e:	02848513          	addi	a0,s1,40
    1652:	2e6020ef          	jal	ra,3938 <core_bench_matrix>
    1656:	03c4d803          	lhu	a6,60(s1)
    165a:	01051893          	slli	a7,a0,0x10
    165e:	4108d913          	srai	s2,a7,0x10
    1662:	fe0811e3          	bnez	a6,1644 <calc_func+0xb0>
    1666:	0384d783          	lhu	a5,56(s1)
    166a:	02a49e23          	sh	a0,60(s1)
    166e:	bf95                	j	15e2 <calc_func+0x4e>

00001670 <cmp_complex>:
    1670:	1101                	addi	sp,sp,-32
    1672:	cc22                	sw	s0,24(sp)
    1674:	00051403          	lh	s0,0(a0)
    1678:	ce06                	sw	ra,28(sp)
    167a:	ca26                	sw	s1,20(sp)
    167c:	40745793          	srai	a5,s0,0x7
    1680:	c84a                	sw	s2,16(sp)
    1682:	c452                	sw	s4,8(sp)
    1684:	c64e                	sw	s3,12(sp)
    1686:	0017f093          	andi	ra,a5,1
    168a:	892e                	mv	s2,a1
    168c:	84b2                	mv	s1,a2
    168e:	07f47a13          	andi	s4,s0,127
    1692:	04009763          	bnez	ra,16e0 <cmp_complex+0x70>
    1696:	40345593          	srai	a1,s0,0x3
    169a:	00f5f293          	andi	t0,a1,15
    169e:	00429313          	slli	t1,t0,0x4
    16a2:	00747713          	andi	a4,s0,7
    16a6:	89aa                	mv	s3,a0
    16a8:	0062e5b3          	or	a1,t0,t1
    16ac:	03865783          	lhu	a5,56(a2)
    16b0:	c355                	beqz	a4,1754 <cmp_complex+0xe4>
    16b2:	4505                	li	a0,1
    16b4:	10a70c63          	beq	a4,a0,17cc <cmp_complex+0x15c>
    16b8:	01041e13          	slli	t3,s0,0x10
    16bc:	010e5513          	srli	a0,t3,0x10
    16c0:	8a22                	mv	s4,s0
    16c2:	85be                	mv	a1,a5
    16c4:	219030ef          	jal	ra,50dc <crcu16>
    16c8:	07fa7a13          	andi	s4,s4,127
    16cc:	f0047e93          	andi	t4,s0,-256
    16d0:	01da6f33          	or	t5,s4,t4
    16d4:	02a49c23          	sh	a0,56(s1)
    16d8:	080f6f93          	ori	t6,t5,128
    16dc:	01f99023          	sh	t6,0(s3)
    16e0:	00091403          	lh	s0,0(s2)
    16e4:	40745793          	srai	a5,s0,0x7
    16e8:	0017f093          	andi	ra,a5,1
    16ec:	07f47e93          	andi	t4,s0,127
    16f0:	04009763          	bnez	ra,173e <cmp_complex+0xce>
    16f4:	40345993          	srai	s3,s0,0x3
    16f8:	00f9f593          	andi	a1,s3,15
    16fc:	00459293          	slli	t0,a1,0x4
    1700:	00747313          	andi	t1,s0,7
    1704:	0055e5b3          	or	a1,a1,t0
    1708:	0384d783          	lhu	a5,56(s1)
    170c:	08030263          	beqz	t1,1790 <cmp_complex+0x120>
    1710:	4505                	li	a0,1
    1712:	0ca30f63          	beq	t1,a0,17f0 <cmp_complex+0x180>
    1716:	01041e13          	slli	t3,s0,0x10
    171a:	010e5513          	srli	a0,t3,0x10
    171e:	89a2                	mv	s3,s0
    1720:	85be                	mv	a1,a5
    1722:	1bb030ef          	jal	ra,50dc <crcu16>
    1726:	07f9fe93          	andi	t4,s3,127
    172a:	f0047f13          	andi	t5,s0,-256
    172e:	01eeefb3          	or	t6,t4,t5
    1732:	02a49c23          	sh	a0,56(s1)
    1736:	080fe493          	ori	s1,t6,128
    173a:	00991023          	sh	s1,0(s2)
    173e:	40f2                	lw	ra,28(sp)
    1740:	4462                	lw	s0,24(sp)
    1742:	41da0533          	sub	a0,s4,t4
    1746:	44d2                	lw	s1,20(sp)
    1748:	4942                	lw	s2,16(sp)
    174a:	49b2                	lw	s3,12(sp)
    174c:	4a22                	lw	s4,8(sp)
    174e:	6105                	addi	sp,sp,32
    1750:	8082                	ret
    1752:	0001                	nop
    1754:	02200693          	li	a3,34
    1758:	83ae                	mv	t2,a1
    175a:	00d5d463          	bge	a1,a3,1762 <cmp_complex+0xf2>
    175e:	02200393          	li	t2,34
    1762:	00049603          	lh	a2,0(s1)
    1766:	00249683          	lh	a3,2(s1)
    176a:	48cc                	lw	a1,20(s1)
    176c:	4c88                	lw	a0,24(s1)
    176e:	0ff3f713          	andi	a4,t2,255
    1772:	70e040ef          	jal	ra,5e80 <core_bench_state>
    1776:	03e4d603          	lhu	a2,62(s1)
    177a:	01051a13          	slli	s4,a0,0x10
    177e:	410a5a13          	srai	s4,s4,0x10
    1782:	e219                	bnez	a2,1788 <cmp_complex+0x118>
    1784:	02a49f23          	sh	a0,62(s1)
    1788:	0384d783          	lhu	a5,56(s1)
    178c:	bf1d                	j	16c2 <cmp_complex+0x52>
    178e:	0001                	nop
    1790:	02200693          	li	a3,34
    1794:	872e                	mv	a4,a1
    1796:	00d5d463          	bge	a1,a3,179e <cmp_complex+0x12e>
    179a:	02200713          	li	a4,34
    179e:	00049603          	lh	a2,0(s1)
    17a2:	00249683          	lh	a3,2(s1)
    17a6:	48cc                	lw	a1,20(s1)
    17a8:	4c88                	lw	a0,24(s1)
    17aa:	0ff77713          	andi	a4,a4,255
    17ae:	6d2040ef          	jal	ra,5e80 <core_bench_state>
    17b2:	03e4d383          	lhu	t2,62(s1)
    17b6:	01051613          	slli	a2,a0,0x10
    17ba:	41065993          	srai	s3,a2,0x10
    17be:	00039463          	bnez	t2,17c6 <cmp_complex+0x156>
    17c2:	02a49f23          	sh	a0,62(s1)
    17c6:	0384d783          	lhu	a5,56(s1)
    17ca:	bf99                	j	1720 <cmp_complex+0xb0>
    17cc:	863e                	mv	a2,a5
    17ce:	02848513          	addi	a0,s1,40
    17d2:	166020ef          	jal	ra,3938 <core_bench_matrix>
    17d6:	03c4d803          	lhu	a6,60(s1)
    17da:	01051893          	slli	a7,a0,0x10
    17de:	4108da13          	srai	s4,a7,0x10
    17e2:	fa0813e3          	bnez	a6,1788 <cmp_complex+0x118>
    17e6:	0384d783          	lhu	a5,56(s1)
    17ea:	02a49e23          	sh	a0,60(s1)
    17ee:	bdd1                	j	16c2 <cmp_complex+0x52>
    17f0:	863e                	mv	a2,a5
    17f2:	02848513          	addi	a0,s1,40
    17f6:	142020ef          	jal	ra,3938 <core_bench_matrix>
    17fa:	03c4d803          	lhu	a6,60(s1)
    17fe:	01051893          	slli	a7,a0,0x10
    1802:	4108d993          	srai	s3,a7,0x10
    1806:	fc0810e3          	bnez	a6,17c6 <cmp_complex+0x156>
    180a:	0384d783          	lhu	a5,56(s1)
    180e:	02a49e23          	sh	a0,60(s1)
    1812:	b739                	j	1720 <cmp_complex+0xb0>

00001814 <cmp_idx>:
    1814:	ca01                	beqz	a2,1824 <cmp_idx+0x10>
    1816:	00251503          	lh	a0,2(a0)
    181a:	00259583          	lh	a1,2(a1)
    181e:	8d0d                	sub	a0,a0,a1
    1820:	8082                	ret
    1822:	0001                	nop
    1824:	00051783          	lh	a5,0(a0)
    1828:	01079713          	slli	a4,a5,0x10
    182c:	01075293          	srli	t0,a4,0x10
    1830:	f007f313          	andi	t1,a5,-256
    1834:	0082d393          	srli	t2,t0,0x8
    1838:	00736633          	or	a2,t1,t2
    183c:	00c51023          	sh	a2,0(a0)
    1840:	00059683          	lh	a3,0(a1)
    1844:	00251503          	lh	a0,2(a0)
    1848:	01069813          	slli	a6,a3,0x10
    184c:	01085893          	srli	a7,a6,0x10
    1850:	f006fe13          	andi	t3,a3,-256
    1854:	0088de93          	srli	t4,a7,0x8
    1858:	01de6f33          	or	t5,t3,t4
    185c:	01e59023          	sh	t5,0(a1)
    1860:	00259583          	lh	a1,2(a1)
    1864:	8d0d                	sub	a0,a0,a1
    1866:	8082                	ret

00001868 <copy_info>:
    1868:	00059703          	lh	a4,0(a1)
    186c:	00259783          	lh	a5,2(a1)
    1870:	00e51023          	sh	a4,0(a0)
    1874:	00f51123          	sh	a5,2(a0)
    1878:	8082                	ret
    187a:	0001                	nop

0000187c <core_bench_list>:
    187c:	00451e03          	lh	t3,4(a0)
    1880:	711d                	addi	sp,sp,-96
    1882:	dc62                	sw	s8,56(sp)
    1884:	ce86                	sw	ra,92(sp)
    1886:	cca2                	sw	s0,88(sp)
    1888:	caa6                	sw	s1,84(sp)
    188a:	c8ca                	sw	s2,80(sp)
    188c:	c6ce                	sw	s3,76(sp)
    188e:	c4d2                	sw	s4,72(sp)
    1890:	c2d6                	sw	s5,68(sp)
    1892:	c0da                	sw	s6,64(sp)
    1894:	de5e                	sw	s7,60(sp)
    1896:	da66                	sw	s9,52(sp)
    1898:	d86a                	sw	s10,48(sp)
    189a:	d66e                	sw	s11,44(sp)
    189c:	ca02                	sw	zero,20(sp)
    189e:	c62e                	sw	a1,12(sp)
    18a0:	02452c03          	lw	s8,36(a0)
    18a4:	69c05f63          	blez	t3,1f42 <core_bench_list+0x6c6>
    18a8:	4601                	li	a2,0
    18aa:	4e81                	li	t4,0
    18ac:	4f01                	li	t5,0
    18ae:	4301                	li	t1,0
    18b0:	47b2                	lw	a5,12(sp)
    18b2:	0ff67693          	andi	a3,a2,255
    18b6:	ca36                	sw	a3,20(sp)
    18b8:	3007c863          	bltz	a5,1bc8 <core_bench_list+0x34c>
    18bc:	680c0763          	beqz	s8,1f4a <core_bench_list+0x6ce>
    18c0:	004c2483          	lw	s1,4(s8)
    18c4:	4932                	lw	s2,12(sp)
    18c6:	89e2                	mv	s3,s8
    18c8:	00249803          	lh	a6,2(s1)
    18cc:	01281b63          	bne	a6,s2,18e2 <core_bench_list+0x66>
    18d0:	a829                	j	18ea <core_bench_list+0x6e>
    18d2:	0001                	nop
    18d4:	0049aa03          	lw	s4,4(s3)
    18d8:	4b32                	lw	s6,12(sp)
    18da:	002a1a83          	lh	s5,2(s4)
    18de:	016a8663          	beq	s5,s6,18ea <core_bench_list+0x6e>
    18e2:	0009a983          	lw	s3,0(s3)
    18e6:	fe0997e3          	bnez	s3,18d4 <core_bench_list+0x58>
    18ea:	4b81                	li	s7,0
    18ec:	a021                	j	18f4 <core_bench_list+0x78>
    18ee:	0001                	nop
    18f0:	8be2                	mv	s7,s8
    18f2:	8c66                	mv	s8,s9
    18f4:	000c2c83          	lw	s9,0(s8)
    18f8:	017c2023          	sw	s7,0(s8)
    18fc:	fe0c9ae3          	bnez	s9,18f0 <core_bench_list+0x74>
    1900:	2e098a63          	beqz	s3,1bf4 <core_bench_list+0x378>
    1904:	0049ad03          	lw	s10,4(s3)
    1908:	001f0893          	addi	a7,t5,1
    190c:	01089d93          	slli	s11,a7,0x10
    1910:	000d1f83          	lh	t6,0(s10)
    1914:	010ddf13          	srli	t5,s11,0x10
    1918:	001ff693          	andi	a3,t6,1
    191c:	ca91                	beqz	a3,1930 <core_bench_list+0xb4>
    191e:	409fd793          	srai	a5,t6,0x9
    1922:	0017f713          	andi	a4,a5,1
    1926:	933a                	add	t1,t1,a4
    1928:	01031093          	slli	ra,t1,0x10
    192c:	0100d313          	srli	t1,ra,0x10
    1930:	0009a283          	lw	t0,0(s3)
    1934:	00028c63          	beqz	t0,194c <core_bench_list+0xd0>
    1938:	0002a383          	lw	t2,0(t0)
    193c:	0079a023          	sw	t2,0(s3)
    1940:	000c2403          	lw	s0,0(s8)
    1944:	0082a023          	sw	s0,0(t0)
    1948:	005c2023          	sw	t0,0(s8)
    194c:	4b32                	lw	s6,12(sp)
    194e:	000b4963          	bltz	s6,1960 <core_bench_list+0xe4>
    1952:	001b0b93          	addi	s7,s6,1
    1956:	010b9c93          	slli	s9,s7,0x10
    195a:	410cdd13          	srai	s10,s9,0x10
    195e:	c66a                	sw	s10,12(sp)
    1960:	0605                	addi	a2,a2,1
    1962:	01061893          	slli	a7,a2,0x10
    1966:	4108d613          	srai	a2,a7,0x10
    196a:	f4ce13e3          	bne	t3,a2,18b0 <core_bench_list+0x34>
    196e:	002f1e13          	slli	t3,t5,0x2
    1972:	41de0db3          	sub	s11,t3,t4
    1976:	01b30f33          	add	t5,t1,s11
    197a:	010f1f93          	slli	t6,t5,0x10
    197e:	010fd693          	srli	a3,t6,0x10
    1982:	ce36                	sw	a3,28(sp)
    1984:	8d2a                	mv	s10,a0
    1986:	2cb04963          	bgtz	a1,1c58 <core_bench_list+0x3dc>
    198a:	000c2b83          	lw	s7,0(s8)
    198e:	4632                	lw	a2,12(sp)
    1990:	8462                	mv	s0,s8
    1992:	000ba903          	lw	s2,0(s7)
    1996:	004ba083          	lw	ra,4(s7)
    199a:	00492d03          	lw	s10,4(s2)
    199e:	00092883          	lw	a7,0(s2)
    19a2:	01aba223          	sw	s10,4(s7)
    19a6:	00192223          	sw	ra,4(s2)
    19aa:	011ba023          	sw	a7,0(s7)
    19ae:	00092023          	sw	zero,0(s2)
    19b2:	1c064363          	bltz	a2,1b78 <core_bench_list+0x2fc>
    19b6:	0001                	nop
    19b8:	4054                	lw	a3,4(s0)
    19ba:	45b2                	lw	a1,12(sp)
    19bc:	00269503          	lh	a0,2(a3)
    19c0:	00b50863          	beq	a0,a1,19d0 <core_bench_list+0x154>
    19c4:	4000                	lw	s0,0(s0)
    19c6:	f86d                	bnez	s0,19b8 <core_bench_list+0x13c>
    19c8:	000c2403          	lw	s0,0(s8)
    19cc:	c005                	beqz	s0,19ec <core_bench_list+0x170>
    19ce:	0001                	nop
    19d0:	004c2783          	lw	a5,4(s8)
    19d4:	45f2                	lw	a1,28(sp)
    19d6:	00079503          	lh	a0,0(a5)
    19da:	60b030ef          	jal	ra,57e4 <crc16>
    19de:	4000                	lw	s0,0(s0)
    19e0:	ce2a                	sw	a0,28(sp)
    19e2:	f47d                	bnez	s0,19d0 <core_bench_list+0x154>
    19e4:	000c2403          	lw	s0,0(s8)
    19e8:	00492083          	lw	ra,4(s2)
    19ec:	4058                	lw	a4,4(s0)
    19ee:	00042303          	lw	t1,0(s0)
    19f2:	4b85                	li	s7,1
    19f4:	00e92223          	sw	a4,4(s2)
    19f8:	00142223          	sw	ra,4(s0)
    19fc:	00692023          	sw	t1,0(s2)
    1a00:	01242023          	sw	s2,0(s0)
    1a04:	4e81                	li	t4,0
    1a06:	4401                	li	s0,0
    1a08:	4e01                	li	t3,0
    1a0a:	4f05                	li	t5,1
    1a0c:	007bf293          	andi	t0,s7,7
    1a10:	0e05                	addi	t3,t3,1
    1a12:	89e2                	mv	s3,s8
    1a14:	4b01                	li	s6,0
    1a16:	06028963          	beqz	t0,1a88 <core_bench_list+0x20c>
    1a1a:	4385                	li	t2,1
    1a1c:	04728f63          	beq	t0,t2,1a7a <core_bench_list+0x1fe>
    1a20:	4809                	li	a6,2
    1a22:	05028763          	beq	t0,a6,1a70 <core_bench_list+0x1f4>
    1a26:	4a0d                	li	s4,3
    1a28:	03428f63          	beq	t0,s4,1a66 <core_bench_list+0x1ea>
    1a2c:	4a91                	li	s5,4
    1a2e:	03528763          	beq	t0,s5,1a5c <core_bench_list+0x1e0>
    1a32:	4d95                	li	s11,5
    1a34:	01b28f63          	beq	t0,s11,1a52 <core_bench_list+0x1d6>
    1a38:	4c99                	li	s9,6
    1a3a:	01928763          	beq	t0,s9,1a48 <core_bench_list+0x1cc>
    1a3e:	000c2983          	lw	s3,0(s8)
    1a42:	4b05                	li	s6,1
    1a44:	0a098263          	beqz	s3,1ae8 <core_bench_list+0x26c>
    1a48:	0009a983          	lw	s3,0(s3)
    1a4c:	0b05                	addi	s6,s6,1
    1a4e:	08098d63          	beqz	s3,1ae8 <core_bench_list+0x26c>
    1a52:	0009a983          	lw	s3,0(s3)
    1a56:	0b05                	addi	s6,s6,1
    1a58:	08098863          	beqz	s3,1ae8 <core_bench_list+0x26c>
    1a5c:	0009a983          	lw	s3,0(s3)
    1a60:	0b05                	addi	s6,s6,1
    1a62:	08098363          	beqz	s3,1ae8 <core_bench_list+0x26c>
    1a66:	0009a983          	lw	s3,0(s3)
    1a6a:	0b05                	addi	s6,s6,1
    1a6c:	06098e63          	beqz	s3,1ae8 <core_bench_list+0x26c>
    1a70:	0009a983          	lw	s3,0(s3)
    1a74:	0b05                	addi	s6,s6,1
    1a76:	06098963          	beqz	s3,1ae8 <core_bench_list+0x26c>
    1a7a:	0009a983          	lw	s3,0(s3)
    1a7e:	0b05                	addi	s6,s6,1
    1a80:	06098463          	beqz	s3,1ae8 <core_bench_list+0x26c>
    1a84:	136b8c63          	beq	s7,s6,1bbc <core_bench_list+0x340>
    1a88:	0009a983          	lw	s3,0(s3)
    1a8c:	0b05                	addi	s6,s6,1
    1a8e:	84da                	mv	s1,s6
    1a90:	04098c63          	beqz	s3,1ae8 <core_bench_list+0x26c>
    1a94:	0009a983          	lw	s3,0(s3)
    1a98:	0b05                	addi	s6,s6,1
    1a9a:	04098763          	beqz	s3,1ae8 <core_bench_list+0x26c>
    1a9e:	0009a983          	lw	s3,0(s3)
    1aa2:	00248b13          	addi	s6,s1,2
    1aa6:	04098163          	beqz	s3,1ae8 <core_bench_list+0x26c>
    1aaa:	0009a983          	lw	s3,0(s3)
    1aae:	00348b13          	addi	s6,s1,3
    1ab2:	02098b63          	beqz	s3,1ae8 <core_bench_list+0x26c>
    1ab6:	0009a983          	lw	s3,0(s3)
    1aba:	00448b13          	addi	s6,s1,4
    1abe:	02098563          	beqz	s3,1ae8 <core_bench_list+0x26c>
    1ac2:	0009a983          	lw	s3,0(s3)
    1ac6:	00548b13          	addi	s6,s1,5
    1aca:	00098f63          	beqz	s3,1ae8 <core_bench_list+0x26c>
    1ace:	0009a983          	lw	s3,0(s3)
    1ad2:	00648b13          	addi	s6,s1,6
    1ad6:	00098963          	beqz	s3,1ae8 <core_bench_list+0x26c>
    1ada:	0009a983          	lw	s3,0(s3)
    1ade:	00748b13          	addi	s6,s1,7
    1ae2:	fa0991e3          	bnez	s3,1a84 <core_bench_list+0x208>
    1ae6:	0001                	nop
    1ae8:	8d62                	mv	s10,s8
    1aea:	865e                	mv	a2,s7
    1aec:	8c4e                	mv	s8,s3
    1aee:	060b0963          	beqz	s6,1b60 <core_bench_list+0x2e4>
    1af2:	0001                	nop
    1af4:	c245                	beqz	a2,1b94 <core_bench_list+0x318>
    1af6:	080c0f63          	beqz	s8,1b94 <core_bench_list+0x318>
    1afa:	004d2883          	lw	a7,4(s10)
    1afe:	004c2f83          	lw	t6,4(s8)
    1b02:	00089683          	lh	a3,0(a7)
    1b06:	002f9583          	lh	a1,2(t6)
    1b0a:	00289503          	lh	a0,2(a7)
    1b0e:	01069913          	slli	s2,a3,0x10
    1b12:	01095093          	srli	ra,s2,0x10
    1b16:	f006f793          	andi	a5,a3,-256
    1b1a:	0080d713          	srli	a4,ra,0x8
    1b1e:	00e7e333          	or	t1,a5,a4
    1b22:	00689023          	sh	t1,0(a7)
    1b26:	000f9283          	lh	t0,0(t6)
    1b2a:	40b503b3          	sub	t2,a0,a1
    1b2e:	01029813          	slli	a6,t0,0x10
    1b32:	01085a13          	srli	s4,a6,0x10
    1b36:	f002fa93          	andi	s5,t0,-256
    1b3a:	008a5d93          	srli	s11,s4,0x8
    1b3e:	01baecb3          	or	s9,s5,s11
    1b42:	019f9023          	sh	s9,0(t6)
    1b46:	04705763          	blez	t2,1b94 <core_bench_list+0x318>
    1b4a:	84e2                	mv	s1,s8
    1b4c:	000c2c03          	lw	s8,0(s8)
    1b50:	167d                	addi	a2,a2,-1
    1b52:	020e8063          	beqz	t4,1b72 <core_bench_list+0x2f6>
    1b56:	009ea023          	sw	s1,0(t4)
    1b5a:	8ea6                	mv	t4,s1
    1b5c:	f80b1ce3          	bnez	s6,1af4 <core_bench_list+0x278>
    1b60:	c221                	beqz	a2,1ba0 <core_bench_list+0x324>
    1b62:	040c0163          	beqz	s8,1ba4 <core_bench_list+0x328>
    1b66:	84e2                	mv	s1,s8
    1b68:	167d                	addi	a2,a2,-1
    1b6a:	000c2c03          	lw	s8,0(s8)
    1b6e:	fe0e94e3          	bnez	t4,1b56 <core_bench_list+0x2da>
    1b72:	8426                	mv	s0,s1
    1b74:	8ea6                	mv	t4,s1
    1b76:	b7dd                	j	1b5c <core_bench_list+0x2e0>
    1b78:	00442e03          	lw	t3,4(s0)
    1b7c:	4fd2                	lw	t6,20(sp)
    1b7e:	000e4f03          	lbu	t5,0(t3)
    1b82:	e5ff07e3          	beq	t5,t6,19d0 <core_bench_list+0x154>
    1b86:	4000                	lw	s0,0(s0)
    1b88:	f865                	bnez	s0,1b78 <core_bench_list+0x2fc>
    1b8a:	000c2403          	lw	s0,0(s8)
    1b8e:	e40411e3          	bnez	s0,19d0 <core_bench_list+0x154>
    1b92:	bda9                	j	19ec <core_bench_list+0x170>
    1b94:	84ea                	mv	s1,s10
    1b96:	1b7d                	addi	s6,s6,-1
    1b98:	000d2d03          	lw	s10,0(s10)
    1b9c:	bf5d                	j	1b52 <core_bench_list+0x2d6>
    1b9e:	0001                	nop
    1ba0:	e60c16e3          	bnez	s8,1a0c <core_bench_list+0x190>
    1ba4:	000ea023          	sw	zero,0(t4)
    1ba8:	07ee0863          	beq	t3,t5,1c18 <core_bench_list+0x39c>
    1bac:	0b86                	slli	s7,s7,0x1
    1bae:	2c040863          	beqz	s0,1e7e <core_bench_list+0x602>
    1bb2:	8c22                	mv	s8,s0
    1bb4:	4e01                	li	t3,0
    1bb6:	4e81                	li	t4,0
    1bb8:	4401                	li	s0,0
    1bba:	bd89                	j	1a0c <core_bench_list+0x190>
    1bbc:	8d62                	mv	s10,s8
    1bbe:	8b5e                	mv	s6,s7
    1bc0:	865e                	mv	a2,s7
    1bc2:	8c4e                	mv	s8,s3
    1bc4:	b72d                	j	1aee <core_bench_list+0x272>
    1bc6:	0001                	nop
    1bc8:	380c0163          	beqz	s8,1f4a <core_bench_list+0x6ce>
    1bcc:	004c2703          	lw	a4,4(s8)
    1bd0:	89e2                	mv	s3,s8
    1bd2:	00074083          	lbu	ra,0(a4)
    1bd6:	00169a63          	bne	a3,ra,1bea <core_bench_list+0x36e>
    1bda:	bb01                	j	18ea <core_bench_list+0x6e>
    1bdc:	0049a283          	lw	t0,4(s3)
    1be0:	4452                	lw	s0,20(sp)
    1be2:	0002c383          	lbu	t2,0(t0)
    1be6:	d08382e3          	beq	t2,s0,18ea <core_bench_list+0x6e>
    1bea:	0009a983          	lw	s3,0(s3)
    1bee:	fe0997e3          	bnez	s3,1bdc <core_bench_list+0x360>
    1bf2:	b9e5                	j	18ea <core_bench_list+0x6e>
    1bf4:	004ba483          	lw	s1,4(s7)
    1bf8:	0e85                	addi	t4,t4,1
    1bfa:	010e9813          	slli	a6,t4,0x10
    1bfe:	00148903          	lb	s2,1(s1)
    1c02:	01085e93          	srli	t4,a6,0x10
    1c06:	00197993          	andi	s3,s2,1
    1c0a:	01330a33          	add	s4,t1,s3
    1c0e:	010a1a93          	slli	s5,s4,0x10
    1c12:	010ad313          	srli	t1,s5,0x10
    1c16:	bb1d                	j	194c <core_bench_list+0xd0>
    1c18:	00042c03          	lw	s8,0(s0)
    1c1c:	000c0e63          	beqz	s8,1c38 <core_bench_list+0x3bc>
    1c20:	00442e83          	lw	t4,4(s0)
    1c24:	45f2                	lw	a1,28(sp)
    1c26:	000e9503          	lh	a0,0(t4)
    1c2a:	3bb030ef          	jal	ra,57e4 <crc16>
    1c2e:	000c2c03          	lw	s8,0(s8)
    1c32:	ce2a                	sw	a0,28(sp)
    1c34:	fe0c16e3          	bnez	s8,1c20 <core_bench_list+0x3a4>
    1c38:	40f6                	lw	ra,92(sp)
    1c3a:	4466                	lw	s0,88(sp)
    1c3c:	4572                	lw	a0,28(sp)
    1c3e:	44d6                	lw	s1,84(sp)
    1c40:	4946                	lw	s2,80(sp)
    1c42:	49b6                	lw	s3,76(sp)
    1c44:	4a26                	lw	s4,72(sp)
    1c46:	4a96                	lw	s5,68(sp)
    1c48:	4b06                	lw	s6,64(sp)
    1c4a:	5bf2                	lw	s7,60(sp)
    1c4c:	5c62                	lw	s8,56(sp)
    1c4e:	5cd2                	lw	s9,52(sp)
    1c50:	5d42                	lw	s10,48(sp)
    1c52:	5db2                	lw	s11,44(sp)
    1c54:	6125                	addi	sp,sp,96
    1c56:	8082                	ret
    1c58:	4505                	li	a0,1
    1c5a:	028d0593          	addi	a1,s10,40
    1c5e:	c22a                	sw	a0,4(sp)
    1c60:	cc2e                	sw	a1,24(sp)
    1c62:	200c0e63          	beqz	s8,1e7e <core_bench_list+0x602>
    1c66:	0001                	nop
    1c68:	4481                	li	s1,0
    1c6a:	c402                	sw	zero,8(sp)
    1c6c:	c802                	sw	zero,16(sp)
    1c6e:	4985                	li	s3,1
    1c70:	4742                	lw	a4,16(sp)
    1c72:	4792                	lw	a5,4(sp)
    1c74:	8de2                	mv	s11,s8
    1c76:	00170313          	addi	t1,a4,1
    1c7a:	0077f093          	andi	ra,a5,7
    1c7e:	c81a                	sw	t1,16(sp)
    1c80:	4c81                	li	s9,0
    1c82:	06008a63          	beqz	ra,1cf6 <core_bench_list+0x47a>
    1c86:	4285                	li	t0,1
    1c88:	04508f63          	beq	ra,t0,1ce6 <core_bench_list+0x46a>
    1c8c:	4389                	li	t2,2
    1c8e:	04708763          	beq	ra,t2,1cdc <core_bench_list+0x460>
    1c92:	440d                	li	s0,3
    1c94:	02808f63          	beq	ra,s0,1cd2 <core_bench_list+0x456>
    1c98:	4e91                	li	t4,4
    1c9a:	03d08763          	beq	ra,t4,1cc8 <core_bench_list+0x44c>
    1c9e:	4815                	li	a6,5
    1ca0:	01008f63          	beq	ra,a6,1cbe <core_bench_list+0x442>
    1ca4:	4919                	li	s2,6
    1ca6:	01208763          	beq	ra,s2,1cb4 <core_bench_list+0x438>
    1caa:	000c2d83          	lw	s11,0(s8)
    1cae:	4c85                	li	s9,1
    1cb0:	0a0d8263          	beqz	s11,1d54 <core_bench_list+0x4d8>
    1cb4:	000dad83          	lw	s11,0(s11)
    1cb8:	0c85                	addi	s9,s9,1
    1cba:	080d8d63          	beqz	s11,1d54 <core_bench_list+0x4d8>
    1cbe:	000dad83          	lw	s11,0(s11)
    1cc2:	0c85                	addi	s9,s9,1
    1cc4:	080d8863          	beqz	s11,1d54 <core_bench_list+0x4d8>
    1cc8:	000dad83          	lw	s11,0(s11)
    1ccc:	0c85                	addi	s9,s9,1
    1cce:	080d8363          	beqz	s11,1d54 <core_bench_list+0x4d8>
    1cd2:	000dad83          	lw	s11,0(s11)
    1cd6:	0c85                	addi	s9,s9,1
    1cd8:	060d8e63          	beqz	s11,1d54 <core_bench_list+0x4d8>
    1cdc:	000dad83          	lw	s11,0(s11)
    1ce0:	0c85                	addi	s9,s9,1
    1ce2:	060d8963          	beqz	s11,1d54 <core_bench_list+0x4d8>
    1ce6:	000dad83          	lw	s11,0(s11)
    1cea:	0c85                	addi	s9,s9,1
    1cec:	060d8463          	beqz	s11,1d54 <core_bench_list+0x4d8>
    1cf0:	4a12                	lw	s4,4(sp)
    1cf2:	074c8163          	beq	s9,s4,1d54 <core_bench_list+0x4d8>
    1cf6:	000dad83          	lw	s11,0(s11)
    1cfa:	0c85                	addi	s9,s9,1
    1cfc:	8ae6                	mv	s5,s9
    1cfe:	040d8b63          	beqz	s11,1d54 <core_bench_list+0x4d8>
    1d02:	000dad83          	lw	s11,0(s11)
    1d06:	0c85                	addi	s9,s9,1
    1d08:	040d8663          	beqz	s11,1d54 <core_bench_list+0x4d8>
    1d0c:	000dad83          	lw	s11,0(s11)
    1d10:	002a8c93          	addi	s9,s5,2
    1d14:	040d8063          	beqz	s11,1d54 <core_bench_list+0x4d8>
    1d18:	000dad83          	lw	s11,0(s11)
    1d1c:	003a8c93          	addi	s9,s5,3
    1d20:	020d8a63          	beqz	s11,1d54 <core_bench_list+0x4d8>
    1d24:	000dad83          	lw	s11,0(s11)
    1d28:	004a8c93          	addi	s9,s5,4
    1d2c:	020d8463          	beqz	s11,1d54 <core_bench_list+0x4d8>
    1d30:	000dad83          	lw	s11,0(s11)
    1d34:	005a8c93          	addi	s9,s5,5
    1d38:	000d8e63          	beqz	s11,1d54 <core_bench_list+0x4d8>
    1d3c:	000dad83          	lw	s11,0(s11)
    1d40:	006a8c93          	addi	s9,s5,6
    1d44:	000d8863          	beqz	s11,1d54 <core_bench_list+0x4d8>
    1d48:	000dad83          	lw	s11,0(s11)
    1d4c:	007a8c93          	addi	s9,s5,7
    1d50:	fa0d90e3          	bnez	s11,1cf0 <core_bench_list+0x474>
    1d54:	4b92                	lw	s7,4(sp)
    1d56:	0e0c8063          	beqz	s9,1e36 <core_bench_list+0x5ba>
    1d5a:	0001                	nop
    1d5c:	0e0b8a63          	beqz	s7,1e50 <core_bench_list+0x5d4>
    1d60:	0e0d8863          	beqz	s11,1e50 <core_bench_list+0x5d4>
    1d64:	004c2b03          	lw	s6,4(s8)
    1d68:	004da903          	lw	s2,4(s11)
    1d6c:	000b1a03          	lh	s4,0(s6)
    1d70:	080a7e13          	andi	t3,s4,128
    1d74:	07fa7a93          	andi	s5,s4,127
    1d78:	040e1663          	bnez	t3,1dc4 <core_bench_list+0x548>
    1d7c:	403a5f13          	srai	t5,s4,0x3
    1d80:	00ff7893          	andi	a7,t5,15
    1d84:	00489f93          	slli	t6,a7,0x4
    1d88:	007a7693          	andi	a3,s4,7
    1d8c:	01f8e5b3          	or	a1,a7,t6
    1d90:	038d5783          	lhu	a5,56(s10)
    1d94:	10068863          	beqz	a3,1ea4 <core_bench_list+0x628>
    1d98:	0f368663          	beq	a3,s3,1e84 <core_bench_list+0x608>
    1d9c:	010a1293          	slli	t0,s4,0x10
    1da0:	0102d513          	srli	a0,t0,0x10
    1da4:	8ad2                	mv	s5,s4
    1da6:	85be                	mv	a1,a5
    1da8:	334030ef          	jal	ra,50dc <crcu16>
    1dac:	07fafa93          	andi	s5,s5,127
    1db0:	f00a7393          	andi	t2,s4,-256
    1db4:	007ae833          	or	a6,s5,t2
    1db8:	02ad1c23          	sh	a0,56(s10)
    1dbc:	08086613          	ori	a2,a6,128
    1dc0:	00cb1023          	sh	a2,0(s6)
    1dc4:	00091b03          	lh	s6,0(s2)
    1dc8:	080b7e93          	andi	t4,s6,128
    1dcc:	07fb7313          	andi	t1,s6,127
    1dd0:	040e9563          	bnez	t4,1e1a <core_bench_list+0x59e>
    1dd4:	403b5413          	srai	s0,s6,0x3
    1dd8:	00f47a13          	andi	s4,s0,15
    1ddc:	004a1e13          	slli	t3,s4,0x4
    1de0:	007b7f13          	andi	t5,s6,7
    1de4:	01ca65b3          	or	a1,s4,t3
    1de8:	038d5783          	lhu	a5,56(s10)
    1dec:	100f0c63          	beqz	t5,1f04 <core_bench_list+0x688>
    1df0:	0f3f0a63          	beq	t5,s3,1ee4 <core_bench_list+0x668>
    1df4:	010b1513          	slli	a0,s6,0x10
    1df8:	8141                	srli	a0,a0,0x10
    1dfa:	845a                	mv	s0,s6
    1dfc:	85be                	mv	a1,a5
    1dfe:	2de030ef          	jal	ra,50dc <crcu16>
    1e02:	07f47313          	andi	t1,s0,127
    1e06:	f00b7293          	andi	t0,s6,-256
    1e0a:	005363b3          	or	t2,t1,t0
    1e0e:	02ad1c23          	sh	a0,56(s10)
    1e12:	0803e813          	ori	a6,t2,128
    1e16:	01091023          	sh	a6,0(s2)
    1e1a:	406a8933          	sub	s2,s5,t1
    1e1e:	03205963          	blez	s2,1e50 <core_bench_list+0x5d4>
    1e22:	80ee                	mv	ra,s11
    1e24:	000dad83          	lw	s11,0(s11)
    1e28:	1bfd                	addi	s7,s7,-1
    1e2a:	cc99                	beqz	s1,1e48 <core_bench_list+0x5cc>
    1e2c:	0014a023          	sw	ra,0(s1)
    1e30:	8486                	mv	s1,ra
    1e32:	f20c95e3          	bnez	s9,1d5c <core_bench_list+0x4e0>
    1e36:	020b8363          	beqz	s7,1e5c <core_bench_list+0x5e0>
    1e3a:	020d8563          	beqz	s11,1e64 <core_bench_list+0x5e8>
    1e3e:	80ee                	mv	ra,s11
    1e40:	1bfd                	addi	s7,s7,-1
    1e42:	000dad83          	lw	s11,0(s11)
    1e46:	f0fd                	bnez	s1,1e2c <core_bench_list+0x5b0>
    1e48:	c406                	sw	ra,8(sp)
    1e4a:	8486                	mv	s1,ra
    1e4c:	b7dd                	j	1e32 <core_bench_list+0x5b6>
    1e4e:	0001                	nop
    1e50:	80e2                	mv	ra,s8
    1e52:	1cfd                	addi	s9,s9,-1
    1e54:	000c2c03          	lw	s8,0(s8)
    1e58:	bfc9                	j	1e2a <core_bench_list+0x5ae>
    1e5a:	0001                	nop
    1e5c:	8c6e                	mv	s8,s11
    1e5e:	e00d99e3          	bnez	s11,1c70 <core_bench_list+0x3f4>
    1e62:	0001                	nop
    1e64:	0004a023          	sw	zero,0(s1)
    1e68:	44c2                	lw	s1,16(sp)
    1e6a:	4c05                	li	s8,1
    1e6c:	0d848d63          	beq	s1,s8,1f46 <core_bench_list+0x6ca>
    1e70:	4992                	lw	s3,4(sp)
    1e72:	4c22                	lw	s8,8(sp)
    1e74:	00199b13          	slli	s6,s3,0x1
    1e78:	c25a                	sw	s6,4(sp)
    1e7a:	de0c17e3          	bnez	s8,1c68 <core_bench_list+0x3ec>
    1e7e:	00002023          	sw	zero,0(zero) # 0 <buf.1936>
    1e82:	9002                	ebreak
    1e84:	4562                	lw	a0,24(sp)
    1e86:	863e                	mv	a2,a5
    1e88:	2b1010ef          	jal	ra,3938 <core_bench_matrix>
    1e8c:	03cd5703          	lhu	a4,60(s10)
    1e90:	01051313          	slli	t1,a0,0x10
    1e94:	41035a93          	srai	s5,t1,0x10
    1e98:	e331                	bnez	a4,1edc <core_bench_list+0x660>
    1e9a:	038d5783          	lhu	a5,56(s10)
    1e9e:	02ad1e23          	sh	a0,60(s10)
    1ea2:	b711                	j	1da6 <core_bench_list+0x52a>
    1ea4:	02200513          	li	a0,34
    1ea8:	80ae                	mv	ra,a1
    1eaa:	00a5d463          	bge	a1,a0,1eb2 <core_bench_list+0x636>
    1eae:	02200093          	li	ra,34
    1eb2:	014d2583          	lw	a1,20(s10)
    1eb6:	002d1683          	lh	a3,2(s10)
    1eba:	000d1603          	lh	a2,0(s10)
    1ebe:	018d2503          	lw	a0,24(s10)
    1ec2:	0ff0f713          	andi	a4,ra,255
    1ec6:	7bb030ef          	jal	ra,5e80 <core_bench_state>
    1eca:	03ed5583          	lhu	a1,62(s10)
    1ece:	01051793          	slli	a5,a0,0x10
    1ed2:	4107da93          	srai	s5,a5,0x10
    1ed6:	e199                	bnez	a1,1edc <core_bench_list+0x660>
    1ed8:	02ad1f23          	sh	a0,62(s10)
    1edc:	038d5783          	lhu	a5,56(s10)
    1ee0:	b5d9                	j	1da6 <core_bench_list+0x52a>
    1ee2:	0001                	nop
    1ee4:	4562                	lw	a0,24(sp)
    1ee6:	863e                	mv	a2,a5
    1ee8:	251010ef          	jal	ra,3938 <core_bench_matrix>
    1eec:	03cd5783          	lhu	a5,60(s10)
    1ef0:	01051713          	slli	a4,a0,0x10
    1ef4:	41075413          	srai	s0,a4,0x10
    1ef8:	e3b1                	bnez	a5,1f3c <core_bench_list+0x6c0>
    1efa:	038d5783          	lhu	a5,56(s10)
    1efe:	02ad1e23          	sh	a0,60(s10)
    1f02:	bded                	j	1dfc <core_bench_list+0x580>
    1f04:	02200893          	li	a7,34
    1f08:	8fae                	mv	t6,a1
    1f0a:	0115d463          	bge	a1,a7,1f12 <core_bench_list+0x696>
    1f0e:	02200f93          	li	t6,34
    1f12:	002d1683          	lh	a3,2(s10)
    1f16:	014d2583          	lw	a1,20(s10)
    1f1a:	000d1603          	lh	a2,0(s10)
    1f1e:	018d2503          	lw	a0,24(s10)
    1f22:	0ffff713          	andi	a4,t6,255
    1f26:	75b030ef          	jal	ra,5e80 <core_bench_state>
    1f2a:	03ed5683          	lhu	a3,62(s10)
    1f2e:	01051593          	slli	a1,a0,0x10
    1f32:	4105d413          	srai	s0,a1,0x10
    1f36:	e299                	bnez	a3,1f3c <core_bench_list+0x6c0>
    1f38:	02ad1f23          	sh	a0,62(s10)
    1f3c:	038d5783          	lhu	a5,56(s10)
    1f40:	bd75                	j	1dfc <core_bench_list+0x580>
    1f42:	ce02                	sw	zero,28(sp)
    1f44:	b481                	j	1984 <core_bench_list+0x108>
    1f46:	4c22                	lw	s8,8(sp)
    1f48:	b489                	j	198a <core_bench_list+0x10e>
    1f4a:	00002783          	lw	a5,0(zero) # 0 <buf.1936>
    1f4e:	9002                	ebreak

00001f50 <core_list_init>:
    1f50:	47d1                	li	a5,20
    1f52:	02f55533          	divu	a0,a0,a5
    1f56:	7861                	lui	a6,0xffff8
    1f58:	0005a023          	sw	zero,0(a1)
    1f5c:	08080693          	addi	a3,a6,128 # ffff8080 <__C_STACK_TOP__+0xfffe8080>
    1f60:	01058713          	addi	a4,a1,16
    1f64:	00858793          	addi	a5,a1,8
    1f68:	1579                	addi	a0,a0,-2
    1f6a:	00351893          	slli	a7,a0,0x3
    1f6e:	98ae                	add	a7,a7,a1
    1f70:	0115a223          	sw	a7,4(a1)
    1f74:	00251e13          	slli	t3,a0,0x2
    1f78:	00089123          	sh	zero,2(a7)
    1f7c:	00d89023          	sh	a3,0(a7)
    1f80:	9e46                	add	t3,t3,a7
    1f82:	00488313          	addi	t1,a7,4
    1f86:	3f177d63          	bgeu	a4,a7,2380 <core_list_init+0x430>
    1f8a:	00888693          	addi	a3,a7,8
    1f8e:	3fc6f963          	bgeu	a3,t3,2380 <core_list_init+0x430>
    1f92:	0005a423          	sw	zero,8(a1)
    1f96:	c19c                	sw	a5,0(a1)
    1f98:	0065a623          	sw	t1,12(a1)
    1f9c:	fff84293          	not	t0,a6
    1fa0:	53fd                	li	t2,-1
    1fa2:	00789223          	sh	t2,4(a7)
    1fa6:	00589323          	sh	t0,6(a7)
    1faa:	20050d63          	beqz	a0,21c4 <core_list_init+0x274>
    1fae:	01061f13          	slli	t5,a2,0x10
    1fb2:	7ee1                	lui	t4,0xffff8
    1fb4:	00357313          	andi	t1,a0,3
    1fb8:	010f5f13          	srli	t5,t5,0x10
    1fbc:	4801                	li	a6,0
    1fbe:	fffece93          	not	t4,t4
    1fc2:	0c030d63          	beqz	t1,209c <core_list_init+0x14c>
    1fc6:	4f85                	li	t6,1
    1fc8:	09f30463          	beq	t1,t6,2050 <core_list_init+0x100>
    1fcc:	4289                	li	t0,2
    1fce:	02530d63          	beq	t1,t0,2008 <core_list_init+0xb8>
    1fd2:	00870393          	addi	t2,a4,8
    1fd6:	0313f863          	bgeu	t2,a7,2006 <core_list_init+0xb6>
    1fda:	00468313          	addi	t1,a3,4
    1fde:	03c37463          	bgeu	t1,t3,2006 <core_list_init+0xb6>
    1fe2:	003f1813          	slli	a6,t5,0x3
    1fe6:	c31c                	sw	a5,0(a4)
    1fe8:	07887793          	andi	a5,a6,120
    1fec:	c198                	sw	a4,0(a1)
    1fee:	00879f93          	slli	t6,a5,0x8
    1ff2:	c354                	sw	a3,4(a4)
    1ff4:	00ffe2b3          	or	t0,t6,a5
    1ff8:	00569023          	sh	t0,0(a3)
    1ffc:	01d69123          	sh	t4,2(a3)
    2000:	87ba                	mv	a5,a4
    2002:	869a                	mv	a3,t1
    2004:	871e                	mv	a4,t2
    2006:	4805                	li	a6,1
    2008:	00870293          	addi	t0,a4,8
    200c:	0512f163          	bgeu	t0,a7,204e <core_list_init+0xfe>
    2010:	00468393          	addi	t2,a3,4
    2014:	03c3fd63          	bgeu	t2,t3,204e <core_list_init+0xfe>
    2018:	01081313          	slli	t1,a6,0x10
    201c:	01035f93          	srli	t6,t1,0x10
    2020:	01efc333          	xor	t1,t6,t5
    2024:	030e                	slli	t1,t1,0x3
    2026:	07837313          	andi	t1,t1,120
    202a:	007fff93          	andi	t6,t6,7
    202e:	c31c                	sw	a5,0(a4)
    2030:	01f367b3          	or	a5,t1,t6
    2034:	c198                	sw	a4,0(a1)
    2036:	00879313          	slli	t1,a5,0x8
    203a:	c354                	sw	a3,4(a4)
    203c:	00f36fb3          	or	t6,t1,a5
    2040:	01f69023          	sh	t6,0(a3)
    2044:	01d69123          	sh	t4,2(a3)
    2048:	87ba                	mv	a5,a4
    204a:	869e                	mv	a3,t2
    204c:	8716                	mv	a4,t0
    204e:	0805                	addi	a6,a6,1
    2050:	00870293          	addi	t0,a4,8
    2054:	0512f163          	bgeu	t0,a7,2096 <core_list_init+0x146>
    2058:	00468393          	addi	t2,a3,4
    205c:	03c3fd63          	bgeu	t2,t3,2096 <core_list_init+0x146>
    2060:	01081313          	slli	t1,a6,0x10
    2064:	01035f93          	srli	t6,t1,0x10
    2068:	01efc333          	xor	t1,t6,t5
    206c:	030e                	slli	t1,t1,0x3
    206e:	07837313          	andi	t1,t1,120
    2072:	007fff93          	andi	t6,t6,7
    2076:	c31c                	sw	a5,0(a4)
    2078:	01f367b3          	or	a5,t1,t6
    207c:	c198                	sw	a4,0(a1)
    207e:	00879313          	slli	t1,a5,0x8
    2082:	c354                	sw	a3,4(a4)
    2084:	00f36fb3          	or	t6,t1,a5
    2088:	01f69023          	sh	t6,0(a3)
    208c:	01d69123          	sh	t4,2(a3)
    2090:	87ba                	mv	a5,a4
    2092:	869e                	mv	a3,t2
    2094:	8716                	mv	a4,t0
    2096:	0805                	addi	a6,a6,1
    2098:	13050663          	beq	a0,a6,21c4 <core_list_init+0x274>
    209c:	00870293          	addi	t0,a4,8
    20a0:	0512f163          	bgeu	t0,a7,20e2 <core_list_init+0x192>
    20a4:	00468393          	addi	t2,a3,4
    20a8:	03c3fd63          	bgeu	t2,t3,20e2 <core_list_init+0x192>
    20ac:	01081313          	slli	t1,a6,0x10
    20b0:	01035f93          	srli	t6,t1,0x10
    20b4:	01efc333          	xor	t1,t6,t5
    20b8:	030e                	slli	t1,t1,0x3
    20ba:	07837313          	andi	t1,t1,120
    20be:	007fff93          	andi	t6,t6,7
    20c2:	c31c                	sw	a5,0(a4)
    20c4:	01f367b3          	or	a5,t1,t6
    20c8:	c198                	sw	a4,0(a1)
    20ca:	00879313          	slli	t1,a5,0x8
    20ce:	c354                	sw	a3,4(a4)
    20d0:	00f36fb3          	or	t6,t1,a5
    20d4:	01f69023          	sh	t6,0(a3)
    20d8:	01d69123          	sh	t4,2(a3)
    20dc:	87ba                	mv	a5,a4
    20de:	869e                	mv	a3,t2
    20e0:	8716                	mv	a4,t0
    20e2:	00870293          	addi	t0,a4,8
    20e6:	0805                	addi	a6,a6,1
    20e8:	0512f163          	bgeu	t0,a7,212a <core_list_init+0x1da>
    20ec:	00468393          	addi	t2,a3,4
    20f0:	03c3fd63          	bgeu	t2,t3,212a <core_list_init+0x1da>
    20f4:	01081313          	slli	t1,a6,0x10
    20f8:	01035f93          	srli	t6,t1,0x10
    20fc:	01efc333          	xor	t1,t6,t5
    2100:	030e                	slli	t1,t1,0x3
    2102:	07837313          	andi	t1,t1,120
    2106:	007fff93          	andi	t6,t6,7
    210a:	c31c                	sw	a5,0(a4)
    210c:	01f367b3          	or	a5,t1,t6
    2110:	c198                	sw	a4,0(a1)
    2112:	00879313          	slli	t1,a5,0x8
    2116:	c354                	sw	a3,4(a4)
    2118:	00f36fb3          	or	t6,t1,a5
    211c:	01f69023          	sh	t6,0(a3)
    2120:	01d69123          	sh	t4,2(a3)
    2124:	87ba                	mv	a5,a4
    2126:	869e                	mv	a3,t2
    2128:	8716                	mv	a4,t0
    212a:	00870293          	addi	t0,a4,8
    212e:	00180313          	addi	t1,a6,1
    2132:	0512f163          	bgeu	t0,a7,2174 <core_list_init+0x224>
    2136:	00468393          	addi	t2,a3,4
    213a:	03c3fd63          	bgeu	t2,t3,2174 <core_list_init+0x224>
    213e:	01031f93          	slli	t6,t1,0x10
    2142:	010fdf93          	srli	t6,t6,0x10
    2146:	01efc333          	xor	t1,t6,t5
    214a:	030e                	slli	t1,t1,0x3
    214c:	07837313          	andi	t1,t1,120
    2150:	007fff93          	andi	t6,t6,7
    2154:	c31c                	sw	a5,0(a4)
    2156:	01f367b3          	or	a5,t1,t6
    215a:	c198                	sw	a4,0(a1)
    215c:	00879313          	slli	t1,a5,0x8
    2160:	c354                	sw	a3,4(a4)
    2162:	00f36fb3          	or	t6,t1,a5
    2166:	01f69023          	sh	t6,0(a3)
    216a:	01d69123          	sh	t4,2(a3)
    216e:	87ba                	mv	a5,a4
    2170:	869e                	mv	a3,t2
    2172:	8716                	mv	a4,t0
    2174:	00870293          	addi	t0,a4,8
    2178:	00280313          	addi	t1,a6,2
    217c:	0512f163          	bgeu	t0,a7,21be <core_list_init+0x26e>
    2180:	00468393          	addi	t2,a3,4
    2184:	03c3fd63          	bgeu	t2,t3,21be <core_list_init+0x26e>
    2188:	01031f93          	slli	t6,t1,0x10
    218c:	010fdf93          	srli	t6,t6,0x10
    2190:	01efc333          	xor	t1,t6,t5
    2194:	030e                	slli	t1,t1,0x3
    2196:	07837313          	andi	t1,t1,120
    219a:	007fff93          	andi	t6,t6,7
    219e:	c31c                	sw	a5,0(a4)
    21a0:	01f367b3          	or	a5,t1,t6
    21a4:	c198                	sw	a4,0(a1)
    21a6:	00879313          	slli	t1,a5,0x8
    21aa:	c354                	sw	a3,4(a4)
    21ac:	00f36fb3          	or	t6,t1,a5
    21b0:	01f69023          	sh	t6,0(a3)
    21b4:	01d69123          	sh	t4,2(a3)
    21b8:	87ba                	mv	a5,a4
    21ba:	869e                	mv	a3,t2
    21bc:	8716                	mv	a4,t0
    21be:	080d                	addi	a6,a6,3
    21c0:	ed051ee3          	bne	a0,a6,209c <core_list_init+0x14c>
    21c4:	0007a883          	lw	a7,0(a5)
    21c8:	04088e63          	beqz	a7,2224 <core_list_init+0x2d4>
    21cc:	4e15                	li	t3,5
    21ce:	03c55f33          	divu	t5,a0,t3
    21d2:	6511                	lui	a0,0x4
    21d4:	4685                	li	a3,1
    21d6:	fff50e93          	addi	t4,a0,-1 # 3fff <matrix_add_const+0x153>
    21da:	a809                	j	21ec <core_list_init+0x29c>
    21dc:	439c                	lw	a5,0(a5)
    21de:	00d29123          	sh	a3,2(t0)
    21e2:	0685                	addi	a3,a3,1
    21e4:	0007a283          	lw	t0,0(a5)
    21e8:	02028e63          	beqz	t0,2224 <core_list_init+0x2d4>
    21ec:	0047a283          	lw	t0,4(a5)
    21f0:	ffe6e6e3          	bltu	a3,t5,21dc <core_list_init+0x28c>
    21f4:	01069393          	slli	t2,a3,0x10
    21f8:	0103d313          	srli	t1,t2,0x10
    21fc:	00130f93          	addi	t6,t1,1
    2200:	008f9713          	slli	a4,t6,0x8
    2204:	70077813          	andi	a6,a4,1792
    2208:	00c348b3          	xor	a7,t1,a2
    220c:	439c                	lw	a5,0(a5)
    220e:	01186e33          	or	t3,a6,a7
    2212:	01de7533          	and	a0,t3,t4
    2216:	00a29123          	sh	a0,2(t0)
    221a:	0007a283          	lw	t0,0(a5)
    221e:	0685                	addi	a3,a3,1
    2220:	fc0296e3          	bnez	t0,21ec <core_list_init+0x29c>
    2224:	4805                	li	a6,1
    2226:	4881                	li	a7,0
    2228:	4501                	li	a0,0
    222a:	4f81                	li	t6,0
    222c:	4285                	li	t0,1
    222e:	0001                	nop
    2230:	00787f13          	andi	t5,a6,7
    2234:	0f85                	addi	t6,t6,1
    2236:	87ae                	mv	a5,a1
    2238:	4701                	li	a4,0
    223a:	040f0b63          	beqz	t5,2290 <core_list_init+0x340>
    223e:	4605                	li	a2,1
    2240:	04cf0363          	beq	t5,a2,2286 <core_list_init+0x336>
    2244:	4e89                	li	t4,2
    2246:	03df0d63          	beq	t5,t4,2280 <core_list_init+0x330>
    224a:	438d                	li	t2,3
    224c:	027f0763          	beq	t5,t2,227a <core_list_init+0x32a>
    2250:	4311                	li	t1,4
    2252:	026f0163          	beq	t5,t1,2274 <core_list_init+0x324>
    2256:	4e15                	li	t3,5
    2258:	01cf0b63          	beq	t5,t3,226e <core_list_init+0x31e>
    225c:	4699                	li	a3,6
    225e:	00df0563          	beq	t5,a3,2268 <core_list_init+0x318>
    2262:	419c                	lw	a5,0(a1)
    2264:	4705                	li	a4,1
    2266:	c7ad                	beqz	a5,22d0 <core_list_init+0x380>
    2268:	439c                	lw	a5,0(a5)
    226a:	0705                	addi	a4,a4,1
    226c:	c3b5                	beqz	a5,22d0 <core_list_init+0x380>
    226e:	439c                	lw	a5,0(a5)
    2270:	0705                	addi	a4,a4,1
    2272:	cfb9                	beqz	a5,22d0 <core_list_init+0x380>
    2274:	439c                	lw	a5,0(a5)
    2276:	0705                	addi	a4,a4,1
    2278:	cfa1                	beqz	a5,22d0 <core_list_init+0x380>
    227a:	439c                	lw	a5,0(a5)
    227c:	0705                	addi	a4,a4,1
    227e:	cba9                	beqz	a5,22d0 <core_list_init+0x380>
    2280:	439c                	lw	a5,0(a5)
    2282:	0705                	addi	a4,a4,1
    2284:	c7b1                	beqz	a5,22d0 <core_list_init+0x380>
    2286:	439c                	lw	a5,0(a5)
    2288:	0705                	addi	a4,a4,1
    228a:	c3b9                	beqz	a5,22d0 <core_list_init+0x380>
    228c:	05070263          	beq	a4,a6,22d0 <core_list_init+0x380>
    2290:	439c                	lw	a5,0(a5)
    2292:	0705                	addi	a4,a4,1
    2294:	8f3a                	mv	t5,a4
    2296:	cf8d                	beqz	a5,22d0 <core_list_init+0x380>
    2298:	439c                	lw	a5,0(a5)
    229a:	0705                	addi	a4,a4,1
    229c:	cb95                	beqz	a5,22d0 <core_list_init+0x380>
    229e:	439c                	lw	a5,0(a5)
    22a0:	002f0713          	addi	a4,t5,2
    22a4:	c795                	beqz	a5,22d0 <core_list_init+0x380>
    22a6:	439c                	lw	a5,0(a5)
    22a8:	003f0713          	addi	a4,t5,3
    22ac:	c395                	beqz	a5,22d0 <core_list_init+0x380>
    22ae:	439c                	lw	a5,0(a5)
    22b0:	004f0713          	addi	a4,t5,4
    22b4:	cf91                	beqz	a5,22d0 <core_list_init+0x380>
    22b6:	439c                	lw	a5,0(a5)
    22b8:	005f0713          	addi	a4,t5,5
    22bc:	cb91                	beqz	a5,22d0 <core_list_init+0x380>
    22be:	439c                	lw	a5,0(a5)
    22c0:	006f0713          	addi	a4,t5,6
    22c4:	c791                	beqz	a5,22d0 <core_list_init+0x380>
    22c6:	439c                	lw	a5,0(a5)
    22c8:	007f0713          	addi	a4,t5,7
    22cc:	f3e1                	bnez	a5,228c <core_list_init+0x33c>
    22ce:	0001                	nop
    22d0:	86ae                	mv	a3,a1
    22d2:	8642                	mv	a2,a6
    22d4:	85be                	mv	a1,a5
    22d6:	c725                	beqz	a4,233e <core_list_init+0x3ee>
    22d8:	ce35                	beqz	a2,2354 <core_list_init+0x404>
    22da:	cdad                	beqz	a1,2354 <core_list_init+0x404>
    22dc:	0046ae83          	lw	t4,4(a3)
    22e0:	0045ae03          	lw	t3,4(a1)
    22e4:	000e9783          	lh	a5,0(t4) # ffff8000 <__C_STACK_TOP__+0xfffe8000>
    22e8:	002e1383          	lh	t2,2(t3)
    22ec:	002e9303          	lh	t1,2(t4)
    22f0:	01079f13          	slli	t5,a5,0x10
    22f4:	010f5f13          	srli	t5,t5,0x10
    22f8:	008f5f13          	srli	t5,t5,0x8
    22fc:	f007f793          	andi	a5,a5,-256
    2300:	01e7e7b3          	or	a5,a5,t5
    2304:	00fe9023          	sh	a5,0(t4)
    2308:	000e1f03          	lh	t5,0(t3)
    230c:	40730333          	sub	t1,t1,t2
    2310:	010f1e93          	slli	t4,t5,0x10
    2314:	010ed393          	srli	t2,t4,0x10
    2318:	f00f7793          	andi	a5,t5,-256
    231c:	0083df13          	srli	t5,t2,0x8
    2320:	01e7eeb3          	or	t4,a5,t5
    2324:	01de1023          	sh	t4,0(t3)
    2328:	02605663          	blez	t1,2354 <core_list_init+0x404>
    232c:	8e2e                	mv	t3,a1
    232e:	418c                	lw	a1,0(a1)
    2330:	167d                	addi	a2,a2,-1
    2332:	00088d63          	beqz	a7,234c <core_list_init+0x3fc>
    2336:	01c8a023          	sw	t3,0(a7)
    233a:	88f2                	mv	a7,t3
    233c:	ff51                	bnez	a4,22d8 <core_list_init+0x388>
    233e:	ce19                	beqz	a2,235c <core_list_init+0x40c>
    2340:	c185                	beqz	a1,2360 <core_list_init+0x410>
    2342:	8e2e                	mv	t3,a1
    2344:	167d                	addi	a2,a2,-1
    2346:	418c                	lw	a1,0(a1)
    2348:	fe0897e3          	bnez	a7,2336 <core_list_init+0x3e6>
    234c:	8572                	mv	a0,t3
    234e:	88f2                	mv	a7,t3
    2350:	b7f5                	j	233c <core_list_init+0x3ec>
    2352:	0001                	nop
    2354:	8e36                	mv	t3,a3
    2356:	177d                	addi	a4,a4,-1
    2358:	4294                	lw	a3,0(a3)
    235a:	bfe1                	j	2332 <core_list_init+0x3e2>
    235c:	ec059ae3          	bnez	a1,2230 <core_list_init+0x2e0>
    2360:	0008a023          	sw	zero,0(a7)
    2364:	005f8a63          	beq	t6,t0,2378 <core_list_init+0x428>
    2368:	0806                	slli	a6,a6,0x1
    236a:	c901                	beqz	a0,237a <core_list_init+0x42a>
    236c:	85aa                	mv	a1,a0
    236e:	4f81                	li	t6,0
    2370:	4881                	li	a7,0
    2372:	4501                	li	a0,0
    2374:	bd75                	j	2230 <core_list_init+0x2e0>
    2376:	0001                	nop
    2378:	8082                	ret
    237a:	00002023          	sw	zero,0(zero) # 0 <buf.1936>
    237e:	9002                	ebreak
    2380:	873e                	mv	a4,a5
    2382:	869a                	mv	a3,t1
    2384:	4781                	li	a5,0
    2386:	b115                	j	1faa <core_list_init+0x5a>

00002388 <core_list_insert_new>:
    2388:	00062803          	lw	a6,0(a2)
    238c:	00880893          	addi	a7,a6,8
    2390:	04e8f263          	bgeu	a7,a4,23d4 <core_list_insert_new+0x4c>
    2394:	4298                	lw	a4,0(a3)
    2396:	00470313          	addi	t1,a4,4
    239a:	02f37d63          	bgeu	t1,a5,23d4 <core_list_insert_new+0x4c>
    239e:	01162023          	sw	a7,0(a2)
    23a2:	411c                	lw	a5,0(a0)
    23a4:	00059283          	lh	t0,0(a1)
    23a8:	00259603          	lh	a2,2(a1)
    23ac:	00f82023          	sw	a5,0(a6)
    23b0:	01052023          	sw	a6,0(a0)
    23b4:	00e82223          	sw	a4,4(a6)
    23b8:	0006a383          	lw	t2,0(a3)
    23bc:	00438513          	addi	a0,t2,4
    23c0:	c288                	sw	a0,0(a3)
    23c2:	00482583          	lw	a1,4(a6)
    23c6:	8542                	mv	a0,a6
    23c8:	00559023          	sh	t0,0(a1)
    23cc:	00c59123          	sh	a2,2(a1)
    23d0:	8082                	ret
    23d2:	0001                	nop
    23d4:	4801                	li	a6,0
    23d6:	8542                	mv	a0,a6
    23d8:	8082                	ret
    23da:	0001                	nop

000023dc <core_list_remove>:
    23dc:	411c                	lw	a5,0(a0)
    23de:	4150                	lw	a2,4(a0)
    23e0:	872a                	mv	a4,a0
    23e2:	43cc                	lw	a1,4(a5)
    23e4:	4394                	lw	a3,0(a5)
    23e6:	853e                	mv	a0,a5
    23e8:	c34c                	sw	a1,4(a4)
    23ea:	c3d0                	sw	a2,4(a5)
    23ec:	c314                	sw	a3,0(a4)
    23ee:	0007a023          	sw	zero,0(a5)
    23f2:	8082                	ret

000023f4 <core_list_undo_remove>:
    23f4:	41d0                	lw	a2,4(a1)
    23f6:	4154                	lw	a3,4(a0)
    23f8:	4198                	lw	a4,0(a1)
    23fa:	c150                	sw	a2,4(a0)
    23fc:	c1d4                	sw	a3,4(a1)
    23fe:	c118                	sw	a4,0(a0)
    2400:	c188                	sw	a0,0(a1)
    2402:	8082                	ret

00002404 <core_list_find>:
    2404:	00259703          	lh	a4,2(a1)
    2408:	02074463          	bltz	a4,2430 <core_list_find+0x2c>
    240c:	c105                	beqz	a0,242c <core_list_find+0x28>
    240e:	4150                	lw	a2,4(a0)
    2410:	00261683          	lh	a3,2(a2)
    2414:	00e69a63          	bne	a3,a4,2428 <core_list_find+0x24>
    2418:	a089                	j	245a <core_list_find+0x56>
    241a:	0001                	nop
    241c:	00452803          	lw	a6,4(a0)
    2420:	00281883          	lh	a7,2(a6)
    2424:	00e88463          	beq	a7,a4,242c <core_list_find+0x28>
    2428:	4108                	lw	a0,0(a0)
    242a:	f96d                	bnez	a0,241c <core_list_find+0x18>
    242c:	8082                	ret
    242e:	0001                	nop
    2430:	dd75                	beqz	a0,242c <core_list_find+0x28>
    2432:	415c                	lw	a5,4(a0)
    2434:	00059283          	lh	t0,0(a1)
    2438:	0007c303          	lbu	t1,0(a5)
    243c:	00531a63          	bne	t1,t0,2450 <core_list_find+0x4c>
    2440:	a831                	j	245c <core_list_find+0x58>
    2442:	0001                	nop
    2444:	00452383          	lw	t2,4(a0)
    2448:	0003c583          	lbu	a1,0(t2)
    244c:	00558663          	beq	a1,t0,2458 <core_list_find+0x54>
    2450:	4108                	lw	a0,0(a0)
    2452:	f96d                	bnez	a0,2444 <core_list_find+0x40>
    2454:	bfe1                	j	242c <core_list_find+0x28>
    2456:	0001                	nop
    2458:	8082                	ret
    245a:	8082                	ret
    245c:	8082                	ret
    245e:	0001                	nop

00002460 <core_list_reverse>:
    2460:	c909                	beqz	a0,2472 <core_list_reverse+0x12>
    2462:	4701                	li	a4,0
    2464:	a019                	j	246a <core_list_reverse+0xa>
    2466:	0001                	nop
    2468:	853e                	mv	a0,a5
    246a:	411c                	lw	a5,0(a0)
    246c:	c118                	sw	a4,0(a0)
    246e:	872a                	mv	a4,a0
    2470:	ffe5                	bnez	a5,2468 <core_list_reverse+0x8>
    2472:	8082                	ret

00002474 <core_list_mergesort>:
    2474:	7179                	addi	sp,sp,-48
    2476:	cc52                	sw	s4,24(sp)
    2478:	c85a                	sw	s6,16(sp)
    247a:	c65e                	sw	s7,12(sp)
    247c:	c462                	sw	s8,8(sp)
    247e:	c06a                	sw	s10,0(sp)
    2480:	d606                	sw	ra,44(sp)
    2482:	d422                	sw	s0,40(sp)
    2484:	d226                	sw	s1,36(sp)
    2486:	d04a                	sw	s2,32(sp)
    2488:	ce4e                	sw	s3,28(sp)
    248a:	ca56                	sw	s5,20(sp)
    248c:	c266                	sw	s9,4(sp)
    248e:	8a2a                	mv	s4,a0
    2490:	8bae                	mv	s7,a1
    2492:	8b32                	mv	s6,a2
    2494:	4c05                	li	s8,1
    2496:	4d05                	li	s10,1
    2498:	100a0563          	beqz	s4,25a2 <core_list_mergesort+0x12e>
    249c:	4c81                	li	s9,0
    249e:	4481                	li	s1,0
    24a0:	4a81                	li	s5,0
    24a2:	0001                	nop
    24a4:	007c7793          	andi	a5,s8,7
    24a8:	0c85                	addi	s9,s9,1
    24aa:	8452                	mv	s0,s4
    24ac:	4901                	li	s2,0
    24ae:	cbb9                	beqz	a5,2504 <core_list_mergesort+0x90>
    24b0:	4705                	li	a4,1
    24b2:	04e78463          	beq	a5,a4,24fa <core_list_mergesort+0x86>
    24b6:	4089                	li	ra,2
    24b8:	02178e63          	beq	a5,ra,24f4 <core_list_mergesort+0x80>
    24bc:	428d                	li	t0,3
    24be:	02578863          	beq	a5,t0,24ee <core_list_mergesort+0x7a>
    24c2:	4311                	li	t1,4
    24c4:	02678263          	beq	a5,t1,24e8 <core_list_mergesort+0x74>
    24c8:	4395                	li	t2,5
    24ca:	00778c63          	beq	a5,t2,24e2 <core_list_mergesort+0x6e>
    24ce:	4519                	li	a0,6
    24d0:	00a78663          	beq	a5,a0,24dc <core_list_mergesort+0x68>
    24d4:	000a2403          	lw	s0,0(s4)
    24d8:	4905                	li	s2,1
    24da:	c42d                	beqz	s0,2544 <core_list_mergesort+0xd0>
    24dc:	4000                	lw	s0,0(s0)
    24de:	0905                	addi	s2,s2,1
    24e0:	c035                	beqz	s0,2544 <core_list_mergesort+0xd0>
    24e2:	4000                	lw	s0,0(s0)
    24e4:	0905                	addi	s2,s2,1
    24e6:	cc39                	beqz	s0,2544 <core_list_mergesort+0xd0>
    24e8:	4000                	lw	s0,0(s0)
    24ea:	0905                	addi	s2,s2,1
    24ec:	cc21                	beqz	s0,2544 <core_list_mergesort+0xd0>
    24ee:	4000                	lw	s0,0(s0)
    24f0:	0905                	addi	s2,s2,1
    24f2:	c829                	beqz	s0,2544 <core_list_mergesort+0xd0>
    24f4:	4000                	lw	s0,0(s0)
    24f6:	0905                	addi	s2,s2,1
    24f8:	c431                	beqz	s0,2544 <core_list_mergesort+0xd0>
    24fa:	4000                	lw	s0,0(s0)
    24fc:	0905                	addi	s2,s2,1
    24fe:	c039                	beqz	s0,2544 <core_list_mergesort+0xd0>
    2500:	052c0263          	beq	s8,s2,2544 <core_list_mergesort+0xd0>
    2504:	4000                	lw	s0,0(s0)
    2506:	0905                	addi	s2,s2,1
    2508:	85ca                	mv	a1,s2
    250a:	cc0d                	beqz	s0,2544 <core_list_mergesort+0xd0>
    250c:	4000                	lw	s0,0(s0)
    250e:	0905                	addi	s2,s2,1
    2510:	c815                	beqz	s0,2544 <core_list_mergesort+0xd0>
    2512:	4000                	lw	s0,0(s0)
    2514:	00258913          	addi	s2,a1,2
    2518:	c415                	beqz	s0,2544 <core_list_mergesort+0xd0>
    251a:	4000                	lw	s0,0(s0)
    251c:	00358913          	addi	s2,a1,3
    2520:	c015                	beqz	s0,2544 <core_list_mergesort+0xd0>
    2522:	4000                	lw	s0,0(s0)
    2524:	00458913          	addi	s2,a1,4
    2528:	cc11                	beqz	s0,2544 <core_list_mergesort+0xd0>
    252a:	4000                	lw	s0,0(s0)
    252c:	00558913          	addi	s2,a1,5
    2530:	c811                	beqz	s0,2544 <core_list_mergesort+0xd0>
    2532:	4000                	lw	s0,0(s0)
    2534:	00658913          	addi	s2,a1,6
    2538:	c411                	beqz	s0,2544 <core_list_mergesort+0xd0>
    253a:	4000                	lw	s0,0(s0)
    253c:	00758913          	addi	s2,a1,7
    2540:	f061                	bnez	s0,2500 <core_list_mergesort+0x8c>
    2542:	0001                	nop
    2544:	89e2                	mv	s3,s8
    2546:	02090563          	beqz	s2,2570 <core_list_mergesort+0xfc>
    254a:	0001                	nop
    254c:	02098c63          	beqz	s3,2584 <core_list_mergesort+0x110>
    2550:	c815                	beqz	s0,2584 <core_list_mergesort+0x110>
    2552:	404c                	lw	a1,4(s0)
    2554:	004a2503          	lw	a0,4(s4)
    2558:	865a                	mv	a2,s6
    255a:	9b82                	jalr	s7
    255c:	02a05463          	blez	a0,2584 <core_list_mergesort+0x110>
    2560:	8622                	mv	a2,s0
    2562:	4000                	lw	s0,0(s0)
    2564:	19fd                	addi	s3,s3,-1
    2566:	cc81                	beqz	s1,257e <core_list_mergesort+0x10a>
    2568:	c090                	sw	a2,0(s1)
    256a:	84b2                	mv	s1,a2
    256c:	fe0910e3          	bnez	s2,254c <core_list_mergesort+0xd8>
    2570:	02098063          	beqz	s3,2590 <core_list_mergesort+0x11c>
    2574:	c005                	beqz	s0,2594 <core_list_mergesort+0x120>
    2576:	8622                	mv	a2,s0
    2578:	19fd                	addi	s3,s3,-1
    257a:	4000                	lw	s0,0(s0)
    257c:	f4f5                	bnez	s1,2568 <core_list_mergesort+0xf4>
    257e:	8ab2                	mv	s5,a2
    2580:	84b2                	mv	s1,a2
    2582:	b7ed                	j	256c <core_list_mergesort+0xf8>
    2584:	8652                	mv	a2,s4
    2586:	197d                	addi	s2,s2,-1
    2588:	000a2a03          	lw	s4,0(s4)
    258c:	bfe9                	j	2566 <core_list_mergesort+0xf2>
    258e:	0001                	nop
    2590:	8a22                	mv	s4,s0
    2592:	f809                	bnez	s0,24a4 <core_list_mergesort+0x30>
    2594:	0004a023          	sw	zero,0(s1)
    2598:	01ac8863          	beq	s9,s10,25a8 <core_list_mergesort+0x134>
    259c:	0c06                	slli	s8,s8,0x1
    259e:	8a56                	mv	s4,s5
    25a0:	bde5                	j	2498 <core_list_mergesort+0x24>
    25a2:	00002023          	sw	zero,0(zero) # 0 <buf.1936>
    25a6:	9002                	ebreak
    25a8:	50b2                	lw	ra,44(sp)
    25aa:	5422                	lw	s0,40(sp)
    25ac:	8556                	mv	a0,s5
    25ae:	5492                	lw	s1,36(sp)
    25b0:	5902                	lw	s2,32(sp)
    25b2:	49f2                	lw	s3,28(sp)
    25b4:	4a62                	lw	s4,24(sp)
    25b6:	4ad2                	lw	s5,20(sp)
    25b8:	4b42                	lw	s6,16(sp)
    25ba:	4bb2                	lw	s7,12(sp)
    25bc:	4c22                	lw	s8,8(sp)
    25be:	4c92                	lw	s9,4(sp)
    25c0:	4d02                	lw	s10,0(sp)
    25c2:	6145                	addi	sp,sp,48
    25c4:	8082                	ret
	...

000025c8 <core_init_matrix>:
    25c8:	7179                	addi	sp,sp,-48
    25ca:	d622                	sw	s0,44(sp)
    25cc:	d426                	sw	s1,40(sp)
    25ce:	d24a                	sw	s2,36(sp)
    25d0:	d04e                	sw	s3,32(sp)
    25d2:	ce52                	sw	s4,28(sp)
    25d4:	cc56                	sw	s5,24(sp)
    25d6:	ca5a                	sw	s6,20(sp)
    25d8:	c85e                	sw	s7,16(sp)
    25da:	c662                	sw	s8,12(sp)
    25dc:	c466                	sw	s9,8(sp)
    25de:	882a                	mv	a6,a0
    25e0:	e211                	bnez	a2,25e4 <core_init_matrix+0x1c>
    25e2:	4605                	li	a2,1
    25e4:	fff58493          	addi	s1,a1,-1
    25e8:	ffc4f293          	andi	t0,s1,-4
    25ec:	00428993          	addi	s3,t0,4
    25f0:	4501                	li	a0,0
    25f2:	00081463          	bnez	a6,25fa <core_init_matrix+0x32>
    25f6:	ac45                	j	28a6 <core_init_matrix+0x2de>
    25f8:	853a                	mv	a0,a4
    25fa:	00150713          	addi	a4,a0,1
    25fe:	02e707b3          	mul	a5,a4,a4
    2602:	00379313          	slli	t1,a5,0x3
    2606:	ff0369e3          	bltu	t1,a6,25f8 <core_init_matrix+0x30>
    260a:	02a503b3          	mul	t2,a0,a0
    260e:	8a2a                	mv	s4,a0
    2610:	00139413          	slli	s0,t2,0x1
    2614:	008984b3          	add	s1,s3,s0
    2618:	24050d63          	beqz	a0,2872 <core_init_matrix+0x2aa>
    261c:	6ec1                	lui	t4,0x10
    261e:	00151913          	slli	s2,a0,0x1
    2622:	8fa6                	mv	t6,s1
    2624:	4381                	li	t2,0
    2626:	4805                	li	a6,1
    2628:	40998f33          	sub	t5,s3,s1
    262c:	1efd                	addi	t4,t4,-1
    262e:	0001                	nop
    2630:	03060633          	mul	a2,a2,a6
    2634:	01081593          	slli	a1,a6,0x10
    2638:	0105da93          	srli	s5,a1,0x10
    263c:	fff50893          	addi	a7,a0,-1
    2640:	0038fb93          	andi	s7,a7,3
    2644:	01ff0b33          	add	s6,t5,t6
    2648:	4e05                	li	t3,1
    264a:	002f8593          	addi	a1,t6,2
    264e:	0805                	addi	a6,a6,1
    2650:	41f65c13          	srai	s8,a2,0x1f
    2654:	010c5c93          	srli	s9,s8,0x10
    2658:	019602b3          	add	t0,a2,s9
    265c:	01d2f733          	and	a4,t0,t4
    2660:	41970633          	sub	a2,a4,s9
    2664:	00ca87b3          	add	a5,s5,a2
    2668:	01079313          	slli	t1,a5,0x10
    266c:	01035893          	srli	a7,t1,0x10
    2670:	9ac6                	add	s5,s5,a7
    2672:	011f9023          	sh	a7,0(t6)
    2676:	0ffafc13          	andi	s8,s5,255
    267a:	018b1023          	sh	s8,0(s6)
    267e:	1eae7663          	bgeu	t3,a0,286a <core_init_matrix+0x2a2>
    2682:	0e0b8363          	beqz	s7,2768 <core_init_matrix+0x1a0>
    2686:	09cb8c63          	beq	s7,t3,271e <core_init_matrix+0x156>
    268a:	4b09                	li	s6,2
    268c:	056b8663          	beq	s7,s6,26d8 <core_init_matrix+0x110>
    2690:	03060633          	mul	a2,a2,a6
    2694:	01081e13          	slli	t3,a6,0x10
    2698:	010e5b93          	srli	s7,t3,0x10
    269c:	00bf0cb3          	add	s9,t5,a1
    26a0:	4e09                	li	t3,2
    26a2:	0805                	addi	a6,a6,1
    26a4:	41f65293          	srai	t0,a2,0x1f
    26a8:	0102d713          	srli	a4,t0,0x10
    26ac:	00e607b3          	add	a5,a2,a4
    26b0:	01d7f333          	and	t1,a5,t4
    26b4:	40e30633          	sub	a2,t1,a4
    26b8:	00cb88b3          	add	a7,s7,a2
    26bc:	01089a93          	slli	s5,a7,0x10
    26c0:	010adc13          	srli	s8,s5,0x10
    26c4:	017c0b33          	add	s6,s8,s7
    26c8:	01859023          	sh	s8,0(a1)
    26cc:	0ffb7593          	andi	a1,s6,255
    26d0:	00bc9023          	sh	a1,0(s9)
    26d4:	004f8593          	addi	a1,t6,4
    26d8:	03060633          	mul	a2,a2,a6
    26dc:	01081b93          	slli	s7,a6,0x10
    26e0:	010bdc93          	srli	s9,s7,0x10
    26e4:	00bf02b3          	add	t0,t5,a1
    26e8:	0e05                	addi	t3,t3,1
    26ea:	0805                	addi	a6,a6,1
    26ec:	0589                	addi	a1,a1,2
    26ee:	41f65713          	srai	a4,a2,0x1f
    26f2:	01075793          	srli	a5,a4,0x10
    26f6:	00f60333          	add	t1,a2,a5
    26fa:	01d378b3          	and	a7,t1,t4
    26fe:	40f88633          	sub	a2,a7,a5
    2702:	00cc8ab3          	add	s5,s9,a2
    2706:	010a9c13          	slli	s8,s5,0x10
    270a:	010c5b13          	srli	s6,s8,0x10
    270e:	019b0bb3          	add	s7,s6,s9
    2712:	ff659f23          	sh	s6,-2(a1)
    2716:	0ffbfc93          	andi	s9,s7,255
    271a:	01929023          	sh	s9,0(t0)
    271e:	03060633          	mul	a2,a2,a6
    2722:	01081293          	slli	t0,a6,0x10
    2726:	0102d793          	srli	a5,t0,0x10
    272a:	00bf0333          	add	t1,t5,a1
    272e:	0589                	addi	a1,a1,2
    2730:	0e05                	addi	t3,t3,1
    2732:	0805                	addi	a6,a6,1
    2734:	41f65713          	srai	a4,a2,0x1f
    2738:	01075893          	srli	a7,a4,0x10
    273c:	01160ab3          	add	s5,a2,a7
    2740:	01dafc33          	and	s8,s5,t4
    2744:	411c0633          	sub	a2,s8,a7
    2748:	00c78b33          	add	s6,a5,a2
    274c:	010b1b93          	slli	s7,s6,0x10
    2750:	010bdc93          	srli	s9,s7,0x10
    2754:	00fc82b3          	add	t0,s9,a5
    2758:	ff959f23          	sh	s9,-2(a1)
    275c:	0ff2f793          	andi	a5,t0,255
    2760:	00f31023          	sh	a5,0(t1)
    2764:	10ae7363          	bgeu	t3,a0,286a <core_init_matrix+0x2a2>
    2768:	03060633          	mul	a2,a2,a6
    276c:	00180793          	addi	a5,a6,1
    2770:	00380a93          	addi	s5,a6,3
    2774:	01079893          	slli	a7,a5,0x10
    2778:	010a9c93          	slli	s9,s5,0x10
    277c:	0108db13          	srli	s6,a7,0x10
    2780:	010cd893          	srli	a7,s9,0x10
    2784:	01081313          	slli	t1,a6,0x10
    2788:	01035293          	srli	t0,t1,0x10
    278c:	00280713          	addi	a4,a6,2
    2790:	41f65c93          	srai	s9,a2,0x1f
    2794:	010cdc93          	srli	s9,s9,0x10
    2798:	9666                	add	a2,a2,s9
    279a:	01d67633          	and	a2,a2,t4
    279e:	41960cb3          	sub	s9,a2,s9
    27a2:	02fc87b3          	mul	a5,s9,a5
    27a6:	01928633          	add	a2,t0,s9
    27aa:	01061c93          	slli	s9,a2,0x10
    27ae:	010cd613          	srli	a2,s9,0x10
    27b2:	92b2                	add	t0,t0,a2
    27b4:	00bf0c33          	add	s8,t5,a1
    27b8:	00c59023          	sh	a2,0(a1)
    27bc:	01071b93          	slli	s7,a4,0x10
    27c0:	0ff2fc93          	andi	s9,t0,255
    27c4:	019c1023          	sh	s9,0(s8)
    27c8:	010bd313          	srli	t1,s7,0x10
    27cc:	8662                	mv	a2,s8
    27ce:	8be2                	mv	s7,s8
    27d0:	82e2                	mv	t0,s8
    27d2:	41f7dc13          	srai	s8,a5,0x1f
    27d6:	010c5c93          	srli	s9,s8,0x10
    27da:	97e6                	add	a5,a5,s9
    27dc:	01d7fc33          	and	s8,a5,t4
    27e0:	419c0cb3          	sub	s9,s8,s9
    27e4:	02ec8733          	mul	a4,s9,a4
    27e8:	019b07b3          	add	a5,s6,s9
    27ec:	01079c13          	slli	s8,a5,0x10
    27f0:	010c5c93          	srli	s9,s8,0x10
    27f4:	9b66                	add	s6,s6,s9
    27f6:	01959123          	sh	s9,2(a1)
    27fa:	0ffb7793          	andi	a5,s6,255
    27fe:	00fb9123          	sh	a5,2(s7)
    2802:	05a1                	addi	a1,a1,8
    2804:	0e11                	addi	t3,t3,4
    2806:	41f75b93          	srai	s7,a4,0x1f
    280a:	010bdc13          	srli	s8,s7,0x10
    280e:	9762                	add	a4,a4,s8
    2810:	01d77cb3          	and	s9,a4,t4
    2814:	418c8b33          	sub	s6,s9,s8
    2818:	035b0ab3          	mul	s5,s6,s5
    281c:	016307b3          	add	a5,t1,s6
    2820:	01079b93          	slli	s7,a5,0x10
    2824:	010bdc13          	srli	s8,s7,0x10
    2828:	9362                	add	t1,t1,s8
    282a:	ff859e23          	sh	s8,-4(a1)
    282e:	0ff37713          	andi	a4,t1,255
    2832:	00e61223          	sh	a4,4(a2)
    2836:	0811                	addi	a6,a6,4
    2838:	41fad613          	srai	a2,s5,0x1f
    283c:	01065c93          	srli	s9,a2,0x10
    2840:	019a8b33          	add	s6,s5,s9
    2844:	01db7ab3          	and	s5,s6,t4
    2848:	419a8633          	sub	a2,s5,s9
    284c:	00c887b3          	add	a5,a7,a2
    2850:	01079b93          	slli	s7,a5,0x10
    2854:	010bdc13          	srli	s8,s7,0x10
    2858:	98e2                	add	a7,a7,s8
    285a:	ff859f23          	sh	s8,-2(a1)
    285e:	0ff8f313          	andi	t1,a7,255
    2862:	00629323          	sh	t1,6(t0)
    2866:	f0ae61e3          	bltu	t3,a0,2768 <core_init_matrix+0x1a0>
    286a:	0385                	addi	t2,t2,1
    286c:	9fca                	add	t6,t6,s2
    286e:	dca3e1e3          	bltu	t2,a0,2630 <core_init_matrix+0x68>
    2872:	9426                	add	s0,s0,s1
    2874:	fff40913          	addi	s2,s0,-1
    2878:	ffc97f93          	andi	t6,s2,-4
    287c:	5432                	lw	s0,44(sp)
    287e:	004f8393          	addi	t2,t6,4
    2882:	0136a223          	sw	s3,4(a3)
    2886:	c684                	sw	s1,8(a3)
    2888:	0146a023          	sw	s4,0(a3)
    288c:	0076a623          	sw	t2,12(a3)
    2890:	54a2                	lw	s1,40(sp)
    2892:	5912                	lw	s2,36(sp)
    2894:	5982                	lw	s3,32(sp)
    2896:	4a72                	lw	s4,28(sp)
    2898:	4ae2                	lw	s5,24(sp)
    289a:	4b52                	lw	s6,20(sp)
    289c:	4bc2                	lw	s7,16(sp)
    289e:	4c32                	lw	s8,12(sp)
    28a0:	4ca2                	lw	s9,8(sp)
    28a2:	6145                	addi	sp,sp,48
    28a4:	8082                	ret
    28a6:	00628493          	addi	s1,t0,6
    28aa:	5a7d                	li	s4,-1
    28ac:	557d                	li	a0,-1
    28ae:	4409                	li	s0,2
    28b0:	b3b5                	j	261c <core_init_matrix+0x54>
    28b2:	0001                	nop

000028b4 <matrix_test>:
    28b4:	711d                	addi	sp,sp,-96
    28b6:	cca2                	sw	s0,88(sp)
    28b8:	c0da                	sw	s6,64(sp)
    28ba:	747d                	lui	s0,0xfffff
    28bc:	ce86                	sw	ra,92(sp)
    28be:	caa6                	sw	s1,84(sp)
    28c0:	c8ca                	sw	s2,80(sp)
    28c2:	c6ce                	sw	s3,76(sp)
    28c4:	c4d2                	sw	s4,72(sp)
    28c6:	c2d6                	sw	s5,68(sp)
    28c8:	de5e                	sw	s7,60(sp)
    28ca:	dc62                	sw	s8,56(sp)
    28cc:	da66                	sw	s9,52(sp)
    28ce:	d86a                	sw	s10,48(sp)
    28d0:	d66e                	sw	s11,44(sp)
    28d2:	c62e                	sw	a1,12(sp)
    28d4:	c832                	sw	a2,16(sp)
    28d6:	8b36                	mv	s6,a3
    28d8:	8c59                	or	s0,s0,a4
    28da:	e119                	bnez	a0,28e0 <matrix_test+0x2c>
    28dc:	01a0106f          	j	38f6 <matrix_test+0x1042>
    28e0:	00151d13          	slli	s10,a0,0x1
    28e4:	40a00f33          	neg	t5,a0
    28e8:	89b2                	mv	s3,a2
    28ea:	01071093          	slli	ra,a4,0x10
    28ee:	966a                	add	a2,a2,s10
    28f0:	001f1c93          	slli	s9,t5,0x1
    28f4:	8e2a                	mv	t3,a0
    28f6:	0100d913          	srli	s2,ra,0x10
    28fa:	86b2                	mv	a3,a2
    28fc:	4801                	li	a6,0
    28fe:	0f0a                	slli	t5,t5,0x2
    2900:	00dc8533          	add	a0,s9,a3
    2904:	40a685b3          	sub	a1,a3,a0
    2908:	ffe58293          	addi	t0,a1,-2
    290c:	0012d313          	srli	t1,t0,0x1
    2910:	00130393          	addi	t2,t1,1
    2914:	0073fa93          	andi	s5,t2,7
    2918:	87aa                	mv	a5,a0
    291a:	080a8863          	beqz	s5,29aa <matrix_test+0xf6>
    291e:	4885                	li	a7,1
    2920:	071a8c63          	beq	s5,a7,2998 <matrix_test+0xe4>
    2924:	4b89                	li	s7,2
    2926:	077a8263          	beq	s5,s7,298a <matrix_test+0xd6>
    292a:	4c0d                	li	s8,3
    292c:	058a8863          	beq	s5,s8,297c <matrix_test+0xc8>
    2930:	4d91                	li	s11,4
    2932:	03ba8e63          	beq	s5,s11,296e <matrix_test+0xba>
    2936:	4e95                	li	t4,5
    2938:	03da8463          	beq	s5,t4,2960 <matrix_test+0xac>
    293c:	4f99                	li	t6,6
    293e:	01fa8a63          	beq	s5,t6,2952 <matrix_test+0x9e>
    2942:	00055483          	lhu	s1,0(a0)
    2946:	00250793          	addi	a5,a0,2
    294a:	00990a33          	add	s4,s2,s1
    294e:	01451023          	sh	s4,0(a0)
    2952:	0007d083          	lhu	ra,0(a5)
    2956:	0789                	addi	a5,a5,2
    2958:	001905b3          	add	a1,s2,ra
    295c:	feb79f23          	sh	a1,-2(a5)
    2960:	0007d283          	lhu	t0,0(a5)
    2964:	0789                	addi	a5,a5,2
    2966:	00590333          	add	t1,s2,t0
    296a:	fe679f23          	sh	t1,-2(a5)
    296e:	0007d383          	lhu	t2,0(a5)
    2972:	0789                	addi	a5,a5,2
    2974:	00790ab3          	add	s5,s2,t2
    2978:	ff579f23          	sh	s5,-2(a5)
    297c:	0007d883          	lhu	a7,0(a5)
    2980:	0789                	addi	a5,a5,2
    2982:	01190bb3          	add	s7,s2,a7
    2986:	ff779f23          	sh	s7,-2(a5)
    298a:	0007dc03          	lhu	s8,0(a5)
    298e:	0789                	addi	a5,a5,2
    2990:	01890db3          	add	s11,s2,s8
    2994:	ffb79f23          	sh	s11,-2(a5)
    2998:	0007de83          	lhu	t4,0(a5)
    299c:	0789                	addi	a5,a5,2
    299e:	01d90fb3          	add	t6,s2,t4
    29a2:	fff79f23          	sh	t6,-2(a5)
    29a6:	06d78563          	beq	a5,a3,2a10 <matrix_test+0x15c>
    29aa:	0007d483          	lhu	s1,0(a5)
    29ae:	0027da03          	lhu	s4,2(a5)
    29b2:	0047d283          	lhu	t0,4(a5)
    29b6:	0067da83          	lhu	s5,6(a5)
    29ba:	0087db83          	lhu	s7,8(a5)
    29be:	00a7d303          	lhu	t1,10(a5)
    29c2:	00c7d883          	lhu	a7,12(a5)
    29c6:	00e7d583          	lhu	a1,14(a5)
    29ca:	009900b3          	add	ra,s2,s1
    29ce:	014903b3          	add	t2,s2,s4
    29d2:	00590c33          	add	s8,s2,t0
    29d6:	01590db3          	add	s11,s2,s5
    29da:	01790eb3          	add	t4,s2,s7
    29de:	00690fb3          	add	t6,s2,t1
    29e2:	011904b3          	add	s1,s2,a7
    29e6:	00b90a33          	add	s4,s2,a1
    29ea:	00179023          	sh	ra,0(a5)
    29ee:	00779123          	sh	t2,2(a5)
    29f2:	01879223          	sh	s8,4(a5)
    29f6:	01b79323          	sh	s11,6(a5)
    29fa:	01d79423          	sh	t4,8(a5)
    29fe:	01f79523          	sh	t6,10(a5)
    2a02:	00979623          	sh	s1,12(a5)
    2a06:	01479723          	sh	s4,14(a5)
    2a0a:	07c1                	addi	a5,a5,16
    2a0c:	f8d79fe3          	bne	a5,a3,29aa <matrix_test+0xf6>
    2a10:	00180493          	addi	s1,a6,1
    2a14:	41e506b3          	sub	a3,a0,t5
    2a18:	009e0463          	beq	t3,s1,2a20 <matrix_test+0x16c>
    2a1c:	8826                	mv	a6,s1
    2a1e:	b5cd                	j	2900 <matrix_test+0x4c>
    2a20:	43b2                	lw	t2,12(sp)
    2a22:	40900c33          	neg	s8,s1
    2a26:	00249a93          	slli	s5,s1,0x2
    2a2a:	8a1e                	mv	s4,t2
    2a2c:	4081                	li	ra,0
    2a2e:	002c1b93          	slli	s7,s8,0x2
    2a32:	0001                	nop
    2a34:	01960533          	add	a0,a2,s9
    2a38:	40a607b3          	sub	a5,a2,a0
    2a3c:	ffe78e13          	addi	t3,a5,-2
    2a40:	001e5f13          	srli	t5,t3,0x1
    2a44:	001f0293          	addi	t0,t5,1
    2a48:	0072f313          	andi	t1,t0,7
    2a4c:	869e                	mv	a3,t2
    2a4e:	87aa                	mv	a5,a0
    2a50:	0a030063          	beqz	t1,2af0 <matrix_test+0x23c>
    2a54:	4885                	li	a7,1
    2a56:	09130363          	beq	t1,a7,2adc <matrix_test+0x228>
    2a5a:	4589                	li	a1,2
    2a5c:	06b30863          	beq	t1,a1,2acc <matrix_test+0x218>
    2a60:	4d8d                	li	s11,3
    2a62:	05b30d63          	beq	t1,s11,2abc <matrix_test+0x208>
    2a66:	4e91                	li	t4,4
    2a68:	05d30263          	beq	t1,t4,2aac <matrix_test+0x1f8>
    2a6c:	4f95                	li	t6,5
    2a6e:	03f30763          	beq	t1,t6,2a9c <matrix_test+0x1e8>
    2a72:	4e19                	li	t3,6
    2a74:	01c30c63          	beq	t1,t3,2a8c <matrix_test+0x1d8>
    2a78:	00051f03          	lh	t5,0(a0)
    2a7c:	00250793          	addi	a5,a0,2
    2a80:	00438693          	addi	a3,t2,4
    2a84:	02ef02b3          	mul	t0,t5,a4
    2a88:	0053a023          	sw	t0,0(t2)
    2a8c:	00079303          	lh	t1,0(a5)
    2a90:	0691                	addi	a3,a3,4
    2a92:	0789                	addi	a5,a5,2
    2a94:	02e308b3          	mul	a7,t1,a4
    2a98:	ff16ae23          	sw	a7,-4(a3)
    2a9c:	00079583          	lh	a1,0(a5)
    2aa0:	0691                	addi	a3,a3,4
    2aa2:	0789                	addi	a5,a5,2
    2aa4:	02e58db3          	mul	s11,a1,a4
    2aa8:	ffb6ae23          	sw	s11,-4(a3)
    2aac:	00079e83          	lh	t4,0(a5)
    2ab0:	0691                	addi	a3,a3,4
    2ab2:	0789                	addi	a5,a5,2
    2ab4:	02ee8fb3          	mul	t6,t4,a4
    2ab8:	fff6ae23          	sw	t6,-4(a3)
    2abc:	00079e03          	lh	t3,0(a5)
    2ac0:	0691                	addi	a3,a3,4
    2ac2:	0789                	addi	a5,a5,2
    2ac4:	02ee0f33          	mul	t5,t3,a4
    2ac8:	ffe6ae23          	sw	t5,-4(a3)
    2acc:	00079283          	lh	t0,0(a5)
    2ad0:	0691                	addi	a3,a3,4
    2ad2:	0789                	addi	a5,a5,2
    2ad4:	02e28333          	mul	t1,t0,a4
    2ad8:	fe66ae23          	sw	t1,-4(a3)
    2adc:	00079883          	lh	a7,0(a5)
    2ae0:	0691                	addi	a3,a3,4
    2ae2:	0789                	addi	a5,a5,2
    2ae4:	02e885b3          	mul	a1,a7,a4
    2ae8:	feb6ae23          	sw	a1,-4(a3)
    2aec:	06f60763          	beq	a2,a5,2b5a <matrix_test+0x2a6>
    2af0:	00079d83          	lh	s11,0(a5)
    2af4:	00279f83          	lh	t6,2(a5)
    2af8:	00479f03          	lh	t5,4(a5)
    2afc:	00679e83          	lh	t4,6(a5)
    2b00:	00879e03          	lh	t3,8(a5)
    2b04:	00a79303          	lh	t1,10(a5)
    2b08:	00c79883          	lh	a7,12(a5)
    2b0c:	00e79583          	lh	a1,14(a5)
    2b10:	02ed82b3          	mul	t0,s11,a4
    2b14:	02068693          	addi	a3,a3,32
    2b18:	07c1                	addi	a5,a5,16
    2b1a:	02ef8db3          	mul	s11,t6,a4
    2b1e:	fe56a023          	sw	t0,-32(a3)
    2b22:	02ef0fb3          	mul	t6,t5,a4
    2b26:	ffb6a223          	sw	s11,-28(a3)
    2b2a:	02ee8f33          	mul	t5,t4,a4
    2b2e:	fff6a423          	sw	t6,-24(a3)
    2b32:	02ee0eb3          	mul	t4,t3,a4
    2b36:	ffe6a623          	sw	t5,-20(a3)
    2b3a:	02e30e33          	mul	t3,t1,a4
    2b3e:	ffd6a823          	sw	t4,-16(a3)
    2b42:	02e88333          	mul	t1,a7,a4
    2b46:	ffc6aa23          	sw	t3,-12(a3)
    2b4a:	02e588b3          	mul	a7,a1,a4
    2b4e:	fe66ac23          	sw	t1,-8(a3)
    2b52:	ff16ae23          	sw	a7,-4(a3)
    2b56:	f8f61de3          	bne	a2,a5,2af0 <matrix_test+0x23c>
    2b5a:	00108793          	addi	a5,ra,1
    2b5e:	93d6                	add	t2,t2,s5
    2b60:	41750633          	sub	a2,a0,s7
    2b64:	01008463          	beq	ra,a6,2b6c <matrix_test+0x2b8>
    2b68:	80be                	mv	ra,a5
    2b6a:	b5e9                	j	2a34 <matrix_test+0x180>
    2b6c:	4732                	lw	a4,12(sp)
    2b6e:	4501                	li	a0,0
    2b70:	4301                	li	t1,0
    2b72:	9756                	add	a4,a4,s5
    2b74:	8cba                	mv	s9,a4
    2b76:	4581                	li	a1,0
    2b78:	4601                	li	a2,0
    2b7a:	0c0e                	slli	s8,s8,0x3
    2b7c:	017700b3          	add	ra,a4,s7
    2b80:	401706b3          	sub	a3,a4,ra
    2b84:	ffc68293          	addi	t0,a3,-4
    2b88:	0022dd93          	srli	s11,t0,0x2
    2b8c:	001d8f93          	addi	t6,s11,1
    2b90:	007fff13          	andi	t5,t6,7
    2b94:	8786                	mv	a5,ra
    2b96:	240f0363          	beqz	t5,2ddc <matrix_test+0x528>
    2b9a:	4e85                	li	t4,1
    2b9c:	11df0263          	beq	t5,t4,2ca0 <matrix_test+0x3ec>
    2ba0:	4e09                	li	t3,2
    2ba2:	0dcf0c63          	beq	t5,t3,2c7a <matrix_test+0x3c6>
    2ba6:	488d                	li	a7,3
    2ba8:	0b1f0763          	beq	t5,a7,2c56 <matrix_test+0x3a2>
    2bac:	4391                	li	t2,4
    2bae:	087f0163          	beq	t5,t2,2c30 <matrix_test+0x37c>
    2bb2:	4695                	li	a3,5
    2bb4:	04df0b63          	beq	t5,a3,2c0a <matrix_test+0x356>
    2bb8:	4299                	li	t0,6
    2bba:	025f0563          	beq	t5,t0,2be4 <matrix_test+0x330>
    2bbe:	0000ad83          	lw	s11,0(ra)
    2bc2:	0542                	slli	a0,a0,0x10
    2bc4:	01055793          	srli	a5,a0,0x10
    2bc8:	95ee                	add	a1,a1,s11
    2bca:	50b44de3          	blt	s0,a1,38e4 <matrix_test+0x1030>
    2bce:	01b32333          	slt	t1,t1,s11
    2bd2:	00678fb3          	add	t6,a5,t1
    2bd6:	010f9f13          	slli	t5,t6,0x10
    2bda:	410f5513          	srai	a0,t5,0x10
    2bde:	00408793          	addi	a5,ra,4
    2be2:	836e                	mv	t1,s11
    2be4:	0007ae03          	lw	t3,0(a5)
    2be8:	01051893          	slli	a7,a0,0x10
    2bec:	0108d393          	srli	t2,a7,0x10
    2bf0:	95f2                	add	a1,a1,t3
    2bf2:	36b44363          	blt	s0,a1,2f58 <matrix_test+0x6a4>
    2bf6:	01c326b3          	slt	a3,t1,t3
    2bfa:	00d382b3          	add	t0,t2,a3
    2bfe:	01029d93          	slli	s11,t0,0x10
    2c02:	410dd513          	srai	a0,s11,0x10
    2c06:	0791                	addi	a5,a5,4
    2c08:	8372                	mv	t1,t3
    2c0a:	0007af83          	lw	t6,0(a5)
    2c0e:	01051f13          	slli	t5,a0,0x10
    2c12:	010f5e93          	srli	t4,t5,0x10
    2c16:	95fe                	add	a1,a1,t6
    2c18:	32b44863          	blt	s0,a1,2f48 <matrix_test+0x694>
    2c1c:	01f32e33          	slt	t3,t1,t6
    2c20:	01ce88b3          	add	a7,t4,t3
    2c24:	01089393          	slli	t2,a7,0x10
    2c28:	4103d513          	srai	a0,t2,0x10
    2c2c:	0791                	addi	a5,a5,4
    2c2e:	837e                	mv	t1,t6
    2c30:	0007a283          	lw	t0,0(a5)
    2c34:	01051d93          	slli	s11,a0,0x10
    2c38:	010dd513          	srli	a0,s11,0x10
    2c3c:	9596                	add	a1,a1,t0
    2c3e:	2eb44d63          	blt	s0,a1,2f38 <matrix_test+0x684>
    2c42:	00532333          	slt	t1,t1,t0
    2c46:	00650fb3          	add	t6,a0,t1
    2c4a:	010f9f13          	slli	t5,t6,0x10
    2c4e:	410f5513          	srai	a0,t5,0x10
    2c52:	0791                	addi	a5,a5,4
    2c54:	8316                	mv	t1,t0
    2c56:	0007a883          	lw	a7,0(a5)
    2c5a:	01051393          	slli	t2,a0,0x10
    2c5e:	0103d693          	srli	a3,t2,0x10
    2c62:	95c6                	add	a1,a1,a7
    2c64:	2cb44263          	blt	s0,a1,2f28 <matrix_test+0x674>
    2c68:	011322b3          	slt	t0,t1,a7
    2c6c:	00568db3          	add	s11,a3,t0
    2c70:	010d9513          	slli	a0,s11,0x10
    2c74:	8541                	srai	a0,a0,0x10
    2c76:	0791                	addi	a5,a5,4
    2c78:	8346                	mv	t1,a7
    2c7a:	0007af83          	lw	t6,0(a5)
    2c7e:	01051f13          	slli	t5,a0,0x10
    2c82:	010f5e93          	srli	t4,t5,0x10
    2c86:	95fe                	add	a1,a1,t6
    2c88:	28b44863          	blt	s0,a1,2f18 <matrix_test+0x664>
    2c8c:	01f32e33          	slt	t3,t1,t6
    2c90:	01ce88b3          	add	a7,t4,t3
    2c94:	01089393          	slli	t2,a7,0x10
    2c98:	4103d513          	srai	a0,t2,0x10
    2c9c:	0791                	addi	a5,a5,4
    2c9e:	837e                	mv	t1,t6
    2ca0:	0007ad83          	lw	s11,0(a5)
    2ca4:	0542                	slli	a0,a0,0x10
    2ca6:	01055f93          	srli	t6,a0,0x10
    2caa:	95ee                	add	a1,a1,s11
    2cac:	24b44e63          	blt	s0,a1,2f08 <matrix_test+0x654>
    2cb0:	01b32333          	slt	t1,t1,s11
    2cb4:	006f8f33          	add	t5,t6,t1
    2cb8:	010f1e93          	slli	t4,t5,0x10
    2cbc:	410ed513          	srai	a0,t4,0x10
    2cc0:	0791                	addi	a5,a5,4
    2cc2:	836e                	mv	t1,s11
    2cc4:	10f71c63          	bne	a4,a5,2ddc <matrix_test+0x528>
    2cc8:	a43d                	j	2ef6 <matrix_test+0x642>
    2cca:	0001                	nop
    2ccc:	0047ae03          	lw	t3,4(a5)
    2cd0:	00a68313          	addi	t1,a3,10
    2cd4:	01031e93          	slli	t4,t1,0x10
    2cd8:	410edf13          	srai	t5,t4,0x10
    2cdc:	4281                	li	t0,0
    2cde:	010f1593          	slli	a1,t5,0x10
    2ce2:	01c28f33          	add	t5,t0,t3
    2ce6:	0791                	addi	a5,a5,4
    2ce8:	0105d393          	srli	t2,a1,0x10
    2cec:	13e45563          	bge	s0,t5,2e16 <matrix_test+0x562>
    2cf0:	00a38d93          	addi	s11,t2,10
    2cf4:	0047ae83          	lw	t4,4(a5)
    2cf8:	010d9513          	slli	a0,s11,0x10
    2cfc:	41055f93          	srai	t6,a0,0x10
    2d00:	4f01                	li	t5,0
    2d02:	010f9313          	slli	t1,t6,0x10
    2d06:	01df0fb3          	add	t6,t5,t4
    2d0a:	01035393          	srli	t2,t1,0x10
    2d0e:	13f44663          	blt	s0,t6,2e3a <matrix_test+0x586>
    2d12:	01de2e33          	slt	t3,t3,t4
    2d16:	01c388b3          	add	a7,t2,t3
    2d1a:	0087af03          	lw	t5,8(a5)
    2d1e:	01089693          	slli	a3,a7,0x10
    2d22:	4106dd93          	srai	s11,a3,0x10
    2d26:	010d9513          	slli	a0,s11,0x10
    2d2a:	01ef85b3          	add	a1,t6,t5
    2d2e:	01055313          	srli	t1,a0,0x10
    2d32:	12b44563          	blt	s0,a1,2e5c <matrix_test+0x5a8>
    2d36:	01eeaeb3          	slt	t4,t4,t5
    2d3a:	01d303b3          	add	t2,t1,t4
    2d3e:	00c7ad83          	lw	s11,12(a5)
    2d42:	01039e13          	slli	t3,t2,0x10
    2d46:	410e5293          	srai	t0,t3,0x10
    2d4a:	01029f93          	slli	t6,t0,0x10
    2d4e:	01b586b3          	add	a3,a1,s11
    2d52:	010fd513          	srli	a0,t6,0x10
    2d56:	12d44463          	blt	s0,a3,2e7e <matrix_test+0x5ca>
    2d5a:	01bf2f33          	slt	t5,t5,s11
    2d5e:	01e50333          	add	t1,a0,t5
    2d62:	0107a283          	lw	t0,16(a5)
    2d66:	01031e93          	slli	t4,t1,0x10
    2d6a:	410ed893          	srai	a7,t4,0x10
    2d6e:	01089593          	slli	a1,a7,0x10
    2d72:	00568e33          	add	t3,a3,t0
    2d76:	0105df93          	srli	t6,a1,0x10
    2d7a:	13c44363          	blt	s0,t3,2ea0 <matrix_test+0x5ec>
    2d7e:	005dadb3          	slt	s11,s11,t0
    2d82:	01bf8533          	add	a0,t6,s11
    2d86:	0147a883          	lw	a7,20(a5)
    2d8a:	01051f13          	slli	t5,a0,0x10
    2d8e:	410f5393          	srai	t2,t5,0x10
    2d92:	01039693          	slli	a3,t2,0x10
    2d96:	011e03b3          	add	t2,t3,a7
    2d9a:	0106df93          	srli	t6,a3,0x10
    2d9e:	12744263          	blt	s0,t2,2ec2 <matrix_test+0x60e>
    2da2:	0112a2b3          	slt	t0,t0,a7
    2da6:	005f8db3          	add	s11,t6,t0
    2daa:	0187a303          	lw	t1,24(a5)
    2dae:	010d9513          	slli	a0,s11,0x10
    2db2:	41055e93          	srai	t4,a0,0x10
    2db6:	010e9e13          	slli	t3,t4,0x10
    2dba:	006385b3          	add	a1,t2,t1
    2dbe:	010e5693          	srli	a3,t3,0x10
    2dc2:	12b44163          	blt	s0,a1,2ee4 <matrix_test+0x630>
    2dc6:	0068a8b3          	slt	a7,a7,t1
    2dca:	01168fb3          	add	t6,a3,a7
    2dce:	010f9293          	slli	t0,t6,0x10
    2dd2:	07f1                	addi	a5,a5,28
    2dd4:	4102d513          	srai	a0,t0,0x10
    2dd8:	10f70f63          	beq	a4,a5,2ef6 <matrix_test+0x642>
    2ddc:	0007a883          	lw	a7,0(a5)
    2de0:	01051393          	slli	t2,a0,0x10
    2de4:	0103d693          	srli	a3,t2,0x10
    2de8:	011582b3          	add	t0,a1,a7
    2dec:	ee5440e3          	blt	s0,t0,2ccc <matrix_test+0x418>
    2df0:	01132db3          	slt	s11,t1,a7
    2df4:	0047ae03          	lw	t3,4(a5)
    2df8:	01b68533          	add	a0,a3,s11
    2dfc:	01051f93          	slli	t6,a0,0x10
    2e00:	410fdf13          	srai	t5,t6,0x10
    2e04:	010f1593          	slli	a1,t5,0x10
    2e08:	01c28f33          	add	t5,t0,t3
    2e0c:	0791                	addi	a5,a5,4
    2e0e:	0105d393          	srli	t2,a1,0x10
    2e12:	ede44fe3          	blt	s0,t5,2cf0 <matrix_test+0x43c>
    2e16:	01c8a8b3          	slt	a7,a7,t3
    2e1a:	011386b3          	add	a3,t2,a7
    2e1e:	0047ae83          	lw	t4,4(a5)
    2e22:	01069293          	slli	t0,a3,0x10
    2e26:	4102df93          	srai	t6,t0,0x10
    2e2a:	010f9313          	slli	t1,t6,0x10
    2e2e:	01df0fb3          	add	t6,t5,t4
    2e32:	01035393          	srli	t2,t1,0x10
    2e36:	edf45ee3          	bge	s0,t6,2d12 <matrix_test+0x45e>
    2e3a:	00a38593          	addi	a1,t2,10
    2e3e:	0087af03          	lw	t5,8(a5)
    2e42:	01059293          	slli	t0,a1,0x10
    2e46:	4102dd93          	srai	s11,t0,0x10
    2e4a:	4f81                	li	t6,0
    2e4c:	010d9513          	slli	a0,s11,0x10
    2e50:	01ef85b3          	add	a1,t6,t5
    2e54:	01055313          	srli	t1,a0,0x10
    2e58:	ecb45fe3          	bge	s0,a1,2d36 <matrix_test+0x482>
    2e5c:	00a30893          	addi	a7,t1,10
    2e60:	00c7ad83          	lw	s11,12(a5)
    2e64:	01089693          	slli	a3,a7,0x10
    2e68:	4106d293          	srai	t0,a3,0x10
    2e6c:	4581                	li	a1,0
    2e6e:	01029f93          	slli	t6,t0,0x10
    2e72:	01b586b3          	add	a3,a1,s11
    2e76:	010fd513          	srli	a0,t6,0x10
    2e7a:	eed450e3          	bge	s0,a3,2d5a <matrix_test+0x4a6>
    2e7e:	00a50393          	addi	t2,a0,10
    2e82:	0107a283          	lw	t0,16(a5)
    2e86:	01039e13          	slli	t3,t2,0x10
    2e8a:	410e5893          	srai	a7,t3,0x10
    2e8e:	4681                	li	a3,0
    2e90:	01089593          	slli	a1,a7,0x10
    2e94:	00568e33          	add	t3,a3,t0
    2e98:	0105df93          	srli	t6,a1,0x10
    2e9c:	efc451e3          	bge	s0,t3,2d7e <matrix_test+0x4ca>
    2ea0:	00af8313          	addi	t1,t6,10
    2ea4:	0147a883          	lw	a7,20(a5)
    2ea8:	01031e93          	slli	t4,t1,0x10
    2eac:	410ed393          	srai	t2,t4,0x10
    2eb0:	4e01                	li	t3,0
    2eb2:	01039693          	slli	a3,t2,0x10
    2eb6:	011e03b3          	add	t2,t3,a7
    2eba:	0106df93          	srli	t6,a3,0x10
    2ebe:	ee7452e3          	bge	s0,t2,2da2 <matrix_test+0x4ee>
    2ec2:	00af8593          	addi	a1,t6,10
    2ec6:	0187a303          	lw	t1,24(a5)
    2eca:	01059f13          	slli	t5,a1,0x10
    2ece:	410f5e93          	srai	t4,t5,0x10
    2ed2:	4381                	li	t2,0
    2ed4:	010e9e13          	slli	t3,t4,0x10
    2ed8:	006385b3          	add	a1,t2,t1
    2edc:	010e5693          	srli	a3,t3,0x10
    2ee0:	eeb453e3          	bge	s0,a1,2dc6 <matrix_test+0x512>
    2ee4:	00a68d93          	addi	s11,a3,10
    2ee8:	010d9513          	slli	a0,s11,0x10
    2eec:	07f1                	addi	a5,a5,28
    2eee:	8541                	srai	a0,a0,0x10
    2ef0:	4581                	li	a1,0
    2ef2:	eef715e3          	bne	a4,a5,2ddc <matrix_test+0x528>
    2ef6:	00160f13          	addi	t5,a2,1
    2efa:	41808733          	sub	a4,ra,s8
    2efe:	07060563          	beq	a2,a6,2f68 <matrix_test+0x6b4>
    2f02:	867a                	mv	a2,t5
    2f04:	b9a5                	j	2b7c <matrix_test+0x2c8>
    2f06:	0001                	nop
    2f08:	00af8593          	addi	a1,t6,10
    2f0c:	01059e13          	slli	t3,a1,0x10
    2f10:	410e5513          	srai	a0,t3,0x10
    2f14:	4581                	li	a1,0
    2f16:	b36d                	j	2cc0 <matrix_test+0x40c>
    2f18:	00ae8693          	addi	a3,t4,10 # 1000a <__C_STACK_TOP__+0xa>
    2f1c:	01069293          	slli	t0,a3,0x10
    2f20:	4102d513          	srai	a0,t0,0x10
    2f24:	4581                	li	a1,0
    2f26:	bb9d                	j	2c9c <matrix_test+0x3e8>
    2f28:	00a68593          	addi	a1,a3,10
    2f2c:	01059313          	slli	t1,a1,0x10
    2f30:	41035513          	srai	a0,t1,0x10
    2f34:	4581                	li	a1,0
    2f36:	b381                	j	2c76 <matrix_test+0x3c2>
    2f38:	00a50e93          	addi	t4,a0,10
    2f3c:	010e9e13          	slli	t3,t4,0x10
    2f40:	410e5513          	srai	a0,t3,0x10
    2f44:	4581                	li	a1,0
    2f46:	b331                	j	2c52 <matrix_test+0x39e>
    2f48:	00ae8593          	addi	a1,t4,10
    2f4c:	01059693          	slli	a3,a1,0x10
    2f50:	4106d513          	srai	a0,a3,0x10
    2f54:	4581                	li	a1,0
    2f56:	b9d9                	j	2c2c <matrix_test+0x378>
    2f58:	00a38513          	addi	a0,t2,10
    2f5c:	01051313          	slli	t1,a0,0x10
    2f60:	41035513          	srai	a0,t1,0x10
    2f64:	4581                	li	a1,0
    2f66:	b145                	j	2c06 <matrix_test+0x352>
    2f68:	4581                	li	a1,0
    2f6a:	07b020ef          	jal	ra,57e4 <crc16>
    2f6e:	4fc2                	lw	t6,16(sp)
    2f70:	45b2                	lw	a1,12(sp)
    2f72:	ca2a                	sw	a0,20(sp)
    2f74:	01ab02b3          	add	t0,s6,s10
    2f78:	cc22                	sw	s0,24(sp)
    2f7a:	ce56                	sw	s5,28(sp)
    2f7c:	8de6                	mv	s11,s9
    2f7e:	0001                	nop
    2f80:	41628633          	sub	a2,t0,s6
    2f84:	ffe60093          	addi	ra,a2,-2
    2f88:	0010de93          	srli	t4,ra,0x1
    2f8c:	001e8393          	addi	t2,t4,1
    2f90:	0073f313          	andi	t1,t2,7
    2f94:	86da                	mv	a3,s6
    2f96:	867e                	mv	a2,t6
    2f98:	4781                	li	a5,0
    2f9a:	0a030663          	beqz	t1,3046 <matrix_test+0x792>
    2f9e:	4e05                	li	t3,1
    2fa0:	09c30863          	beq	t1,t3,3030 <matrix_test+0x77c>
    2fa4:	4889                	li	a7,2
    2fa6:	07130c63          	beq	t1,a7,301e <matrix_test+0x76a>
    2faa:	450d                	li	a0,3
    2fac:	06a30063          	beq	t1,a0,300c <matrix_test+0x758>
    2fb0:	4411                	li	s0,4
    2fb2:	04830463          	beq	t1,s0,2ffa <matrix_test+0x746>
    2fb6:	4815                	li	a6,5
    2fb8:	03030863          	beq	t1,a6,2fe8 <matrix_test+0x734>
    2fbc:	4a99                	li	s5,6
    2fbe:	01530c63          	beq	t1,s5,2fd6 <matrix_test+0x722>
    2fc2:	000f9b83          	lh	s7,0(t6)
    2fc6:	000b1783          	lh	a5,0(s6)
    2fca:	002f8613          	addi	a2,t6,2
    2fce:	002b0693          	addi	a3,s6,2
    2fd2:	02fb87b3          	mul	a5,s7,a5
    2fd6:	00061c03          	lh	s8,0(a2)
    2fda:	00069c83          	lh	s9,0(a3)
    2fde:	0609                	addi	a2,a2,2
    2fe0:	0689                	addi	a3,a3,2
    2fe2:	039c0f33          	mul	t5,s8,s9
    2fe6:	97fa                	add	a5,a5,t5
    2fe8:	00061703          	lh	a4,0(a2)
    2fec:	00069083          	lh	ra,0(a3)
    2ff0:	0609                	addi	a2,a2,2
    2ff2:	0689                	addi	a3,a3,2
    2ff4:	02170eb3          	mul	t4,a4,ra
    2ff8:	97f6                	add	a5,a5,t4
    2ffa:	00061383          	lh	t2,0(a2)
    2ffe:	00069303          	lh	t1,0(a3)
    3002:	0609                	addi	a2,a2,2
    3004:	0689                	addi	a3,a3,2
    3006:	02638e33          	mul	t3,t2,t1
    300a:	97f2                	add	a5,a5,t3
    300c:	00061883          	lh	a7,0(a2)
    3010:	00069503          	lh	a0,0(a3)
    3014:	0609                	addi	a2,a2,2
    3016:	0689                	addi	a3,a3,2
    3018:	02a88433          	mul	s0,a7,a0
    301c:	97a2                	add	a5,a5,s0
    301e:	00061803          	lh	a6,0(a2)
    3022:	00069a83          	lh	s5,0(a3)
    3026:	0609                	addi	a2,a2,2
    3028:	0689                	addi	a3,a3,2
    302a:	03580bb3          	mul	s7,a6,s5
    302e:	97de                	add	a5,a5,s7
    3030:	00061c03          	lh	s8,0(a2)
    3034:	00069c83          	lh	s9,0(a3)
    3038:	0689                	addi	a3,a3,2
    303a:	0609                	addi	a2,a2,2
    303c:	039c0f33          	mul	t5,s8,s9
    3040:	97fa                	add	a5,a5,t5
    3042:	08d28663          	beq	t0,a3,30ce <matrix_test+0x81a>
    3046:	00061e83          	lh	t4,0(a2)
    304a:	00069703          	lh	a4,0(a3)
    304e:	00269a83          	lh	s5,2(a3)
    3052:	00261c83          	lh	s9,2(a2)
    3056:	02ee8733          	mul	a4,t4,a4
    305a:	00461083          	lh	ra,4(a2)
    305e:	00469c03          	lh	s8,4(a3)
    3062:	00661e03          	lh	t3,6(a2)
    3066:	00669b83          	lh	s7,6(a3)
    306a:	00861303          	lh	t1,8(a2)
    306e:	00869403          	lh	s0,8(a3)
    3072:	00a61883          	lh	a7,10(a2)
    3076:	00a69383          	lh	t2,10(a3)
    307a:	00c61803          	lh	a6,12(a2)
    307e:	035c8cb3          	mul	s9,s9,s5
    3082:	00e78ab3          	add	s5,a5,a4
    3086:	00c69f03          	lh	t5,12(a3)
    308a:	00e61503          	lh	a0,14(a2)
    308e:	00e69e83          	lh	t4,14(a3)
    3092:	06c1                	addi	a3,a3,16
    3094:	0641                	addi	a2,a2,16
    3096:	038087b3          	mul	a5,ra,s8
    309a:	019a80b3          	add	ra,s5,s9
    309e:	037e0c33          	mul	s8,t3,s7
    30a2:	00f08e33          	add	t3,ra,a5
    30a6:	02830bb3          	mul	s7,t1,s0
    30aa:	018e0733          	add	a4,t3,s8
    30ae:	02788333          	mul	t1,a7,t2
    30b2:	01770433          	add	s0,a4,s7
    30b6:	03e808b3          	mul	a7,a6,t5
    30ba:	006403b3          	add	t2,s0,t1
    30be:	03d50833          	mul	a6,a0,t4
    30c2:	01138f33          	add	t5,t2,a7
    30c6:	010f07b3          	add	a5,t5,a6
    30ca:	f6d29ee3          	bne	t0,a3,3046 <matrix_test+0x792>
    30ce:	c19c                	sw	a5,0(a1)
    30d0:	0591                	addi	a1,a1,4
    30d2:	9fea                	add	t6,t6,s10
    30d4:	eabd96e3          	bne	s11,a1,2f80 <matrix_test+0x6cc>
    30d8:	4462                	lw	s0,24(sp)
    30da:	4af2                	lw	s5,28(sp)
    30dc:	47b2                	lw	a5,12(sp)
    30de:	4501                	li	a0,0
    30e0:	4081                	li	ra,0
    30e2:	4581                	li	a1,0
    30e4:	4701                	li	a4,0
    30e6:	0001                	nop
    30e8:	0007a883          	lw	a7,0(a5)
    30ec:	fff48293          	addi	t0,s1,-1
    30f0:	01051d93          	slli	s11,a0,0x10
    30f4:	95c6                	add	a1,a1,a7
    30f6:	0032ff93          	andi	t6,t0,3
    30fa:	010dd613          	srli	a2,s11,0x10
    30fe:	74b45163          	bge	s0,a1,3840 <matrix_test+0xf8c>
    3102:	00a60593          	addi	a1,a2,10
    3106:	01059c93          	slli	s9,a1,0x10
    310a:	410cd513          	srai	a0,s9,0x10
    310e:	4581                	li	a1,0
    3110:	4805                	li	a6,1
    3112:	00478613          	addi	a2,a5,4
    3116:	8c46                	mv	s8,a7
    3118:	1a987163          	bgeu	a6,s1,32ba <matrix_test+0xa06>
    311c:	100f8563          	beqz	t6,3226 <matrix_test+0x972>
    3120:	050f8c63          	beq	t6,a6,3178 <matrix_test+0x8c4>
    3124:	4089                	li	ra,2
    3126:	021f8563          	beq	t6,ra,3150 <matrix_test+0x89c>
    312a:	00062c03          	lw	s8,0(a2)
    312e:	01051e13          	slli	t3,a0,0x10
    3132:	010e5b93          	srli	s7,t3,0x10
    3136:	95e2                	add	a1,a1,s8
    3138:	78b44e63          	blt	s0,a1,38d4 <matrix_test+0x1020>
    313c:	0188a333          	slt	t1,a7,s8
    3140:	006b88b3          	add	a7,s7,t1
    3144:	01089393          	slli	t2,a7,0x10
    3148:	4103d513          	srai	a0,t2,0x10
    314c:	0805                	addi	a6,a6,1
    314e:	0611                	addi	a2,a2,4
    3150:	00062f83          	lw	t6,0(a2)
    3154:	01051d93          	slli	s11,a0,0x10
    3158:	010dd513          	srli	a0,s11,0x10
    315c:	95fe                	add	a1,a1,t6
    315e:	72b44363          	blt	s0,a1,3884 <matrix_test+0xfd0>
    3162:	01fc26b3          	slt	a3,s8,t6
    3166:	00d50eb3          	add	t4,a0,a3
    316a:	010e9c93          	slli	s9,t4,0x10
    316e:	410cd513          	srai	a0,s9,0x10
    3172:	0805                	addi	a6,a6,1
    3174:	0611                	addi	a2,a2,4
    3176:	8c7e                	mv	s8,t6
    3178:	00062883          	lw	a7,0(a2)
    317c:	01051e13          	slli	t3,a0,0x10
    3180:	010e5b93          	srli	s7,t3,0x10
    3184:	95c6                	add	a1,a1,a7
    3186:	6eb44763          	blt	s0,a1,3874 <matrix_test+0xfc0>
    318a:	011c2333          	slt	t1,s8,a7
    318e:	006b83b3          	add	t2,s7,t1
    3192:	01039f13          	slli	t5,t2,0x10
    3196:	410f5513          	srai	a0,t5,0x10
    319a:	0805                	addi	a6,a6,1
    319c:	0611                	addi	a2,a2,4
    319e:	08986463          	bltu	a6,s1,3226 <matrix_test+0x972>
    31a2:	aa21                	j	32ba <matrix_test+0xa06>
    31a4:	00462b83          	lw	s7,4(a2)
    31a8:	00a68c13          	addi	s8,a3,10
    31ac:	010c1e13          	slli	t3,s8,0x10
    31b0:	410e5093          	srai	ra,t3,0x10
    31b4:	4e81                	li	t4,0
    31b6:	01009313          	slli	t1,ra,0x10
    31ba:	017e88b3          	add	a7,t4,s7
    31be:	0805                	addi	a6,a6,1
    31c0:	0611                	addi	a2,a2,4
    31c2:	01035393          	srli	t2,t1,0x10
    31c6:	09145d63          	bge	s0,a7,3260 <matrix_test+0x9ac>
    31ca:	00a38d93          	addi	s11,t2,10
    31ce:	4254                	lw	a3,4(a2)
    31d0:	010d9513          	slli	a0,s11,0x10
    31d4:	41055e93          	srai	t4,a0,0x10
    31d8:	4881                	li	a7,0
    31da:	010e9c93          	slli	s9,t4,0x10
    31de:	00d88f33          	add	t5,a7,a3
    31e2:	010cd093          	srli	ra,s9,0x10
    31e6:	09e44e63          	blt	s0,t5,3282 <matrix_test+0x9ce>
    31ea:	00dbac33          	slt	s8,s7,a3
    31ee:	01808e33          	add	t3,ra,s8
    31f2:	00862883          	lw	a7,8(a2)
    31f6:	010e1b93          	slli	s7,t3,0x10
    31fa:	410bd393          	srai	t2,s7,0x10
    31fe:	01039293          	slli	t0,t2,0x10
    3202:	011f05b3          	add	a1,t5,a7
    3206:	0102df93          	srli	t6,t0,0x10
    320a:	08b44d63          	blt	s0,a1,32a4 <matrix_test+0x9f0>
    320e:	0116adb3          	slt	s11,a3,a7
    3212:	01bf8533          	add	a0,t6,s11
    3216:	01051e93          	slli	t4,a0,0x10
    321a:	080d                	addi	a6,a6,3
    321c:	410ed513          	srai	a0,t4,0x10
    3220:	0631                	addi	a2,a2,12
    3222:	08987c63          	bgeu	a6,s1,32ba <matrix_test+0xa06>
    3226:	00062d83          	lw	s11,0(a2)
    322a:	0542                	slli	a0,a0,0x10
    322c:	01055693          	srli	a3,a0,0x10
    3230:	01b58eb3          	add	t4,a1,s11
    3234:	f7d448e3          	blt	s0,t4,31a4 <matrix_test+0x8f0>
    3238:	01b8a8b3          	slt	a7,a7,s11
    323c:	01168cb3          	add	s9,a3,a7
    3240:	00462b83          	lw	s7,4(a2)
    3244:	010c9593          	slli	a1,s9,0x10
    3248:	4105d093          	srai	ra,a1,0x10
    324c:	01009313          	slli	t1,ra,0x10
    3250:	017e88b3          	add	a7,t4,s7
    3254:	0805                	addi	a6,a6,1
    3256:	0611                	addi	a2,a2,4
    3258:	01035393          	srli	t2,t1,0x10
    325c:	f71447e3          	blt	s0,a7,31ca <matrix_test+0x916>
    3260:	017daf33          	slt	t5,s11,s7
    3264:	01e382b3          	add	t0,t2,t5
    3268:	4254                	lw	a3,4(a2)
    326a:	01029f93          	slli	t6,t0,0x10
    326e:	410fde93          	srai	t4,t6,0x10
    3272:	010e9c93          	slli	s9,t4,0x10
    3276:	00d88f33          	add	t5,a7,a3
    327a:	010cd093          	srli	ra,s9,0x10
    327e:	f7e456e3          	bge	s0,t5,31ea <matrix_test+0x936>
    3282:	00a08593          	addi	a1,ra,10
    3286:	00862883          	lw	a7,8(a2)
    328a:	01059313          	slli	t1,a1,0x10
    328e:	41035393          	srai	t2,t1,0x10
    3292:	4f01                	li	t5,0
    3294:	01039293          	slli	t0,t2,0x10
    3298:	011f05b3          	add	a1,t5,a7
    329c:	0102df93          	srli	t6,t0,0x10
    32a0:	f6b457e3          	bge	s0,a1,320e <matrix_test+0x95a>
    32a4:	00af8693          	addi	a3,t6,10
    32a8:	01069c93          	slli	s9,a3,0x10
    32ac:	080d                	addi	a6,a6,3
    32ae:	410cd513          	srai	a0,s9,0x10
    32b2:	4581                	li	a1,0
    32b4:	0631                	addi	a2,a2,12
    32b6:	f69868e3          	bltu	a6,s1,3226 <matrix_test+0x972>
    32ba:	0705                	addi	a4,a4,1
    32bc:	97d6                	add	a5,a5,s5
    32be:	80c6                	mv	ra,a7
    32c0:	e29764e3          	bltu	a4,s1,30e8 <matrix_test+0x834>
    32c4:	45d2                	lw	a1,20(sp)
    32c6:	51e020ef          	jal	ra,57e4 <crc16>
    32ca:	4c32                	lw	s8,12(sp)
    32cc:	4642                	lw	a2,16(sp)
    32ce:	8baa                	mv	s7,a0
    32d0:	85e2                	mv	a1,s8
    32d2:	8526                	mv	a0,s1
    32d4:	86da                	mv	a3,s6
    32d6:	763000ef          	jal	ra,4238 <matrix_mul_matrix>
    32da:	4501                	li	a0,0
    32dc:	4e01                	li	t3,0
    32de:	4581                	li	a1,0
    32e0:	4381                	li	t2,0
    32e2:	0001                	nop
    32e4:	000c2883          	lw	a7,0(s8)
    32e8:	fff48313          	addi	t1,s1,-1
    32ec:	01051293          	slli	t0,a0,0x10
    32f0:	95c6                	add	a1,a1,a7
    32f2:	00337f13          	andi	t5,t1,3
    32f6:	0102df93          	srli	t6,t0,0x10
    32fa:	50b45f63          	bge	s0,a1,3818 <matrix_test+0xf64>
    32fe:	00af8693          	addi	a3,t6,10
    3302:	01069c93          	slli	s9,a3,0x10
    3306:	410cd513          	srai	a0,s9,0x10
    330a:	4581                	li	a1,0
    330c:	4805                	li	a6,1
    330e:	004c0613          	addi	a2,s8,4
    3312:	80c6                	mv	ra,a7
    3314:	1a987163          	bgeu	a6,s1,34b6 <matrix_test+0xc02>
    3318:	100f0563          	beqz	t5,3422 <matrix_test+0xb6e>
    331c:	050f0c63          	beq	t5,a6,3374 <matrix_test+0xac0>
    3320:	4709                	li	a4,2
    3322:	02ef0563          	beq	t5,a4,334c <matrix_test+0xa98>
    3326:	421c                	lw	a5,0(a2)
    3328:	01051093          	slli	ra,a0,0x10
    332c:	0100de13          	srli	t3,ra,0x10
    3330:	95be                	add	a1,a1,a5
    3332:	58b44963          	blt	s0,a1,38c4 <matrix_test+0x1010>
    3336:	00f8a8b3          	slt	a7,a7,a5
    333a:	011e0333          	add	t1,t3,a7
    333e:	01031f13          	slli	t5,t1,0x10
    3342:	410f5513          	srai	a0,t5,0x10
    3346:	0805                	addi	a6,a6,1
    3348:	0611                	addi	a2,a2,4
    334a:	80be                	mv	ra,a5
    334c:	00062f83          	lw	t6,0(a2)
    3350:	01051d93          	slli	s11,a0,0x10
    3354:	010dd513          	srli	a0,s11,0x10
    3358:	95fe                	add	a1,a1,t6
    335a:	54b44563          	blt	s0,a1,38a4 <matrix_test+0xff0>
    335e:	01f0aeb3          	slt	t4,ra,t6
    3362:	01d506b3          	add	a3,a0,t4
    3366:	01069c93          	slli	s9,a3,0x10
    336a:	410cd513          	srai	a0,s9,0x10
    336e:	0805                	addi	a6,a6,1
    3370:	0611                	addi	a2,a2,4
    3372:	80fe                	mv	ra,t6
    3374:	00062883          	lw	a7,0(a2)
    3378:	01051e13          	slli	t3,a0,0x10
    337c:	010e5313          	srli	t1,t3,0x10
    3380:	95c6                	add	a1,a1,a7
    3382:	4cb44963          	blt	s0,a1,3854 <matrix_test+0xfa0>
    3386:	0110af33          	slt	t5,ra,a7
    338a:	01e302b3          	add	t0,t1,t5
    338e:	01029f93          	slli	t6,t0,0x10
    3392:	410fd513          	srai	a0,t6,0x10
    3396:	0805                	addi	a6,a6,1
    3398:	0611                	addi	a2,a2,4
    339a:	08986463          	bltu	a6,s1,3422 <matrix_test+0xb6e>
    339e:	aa21                	j	34b6 <matrix_test+0xc02>
    33a0:	00462f03          	lw	t5,4(a2)
    33a4:	00a68e13          	addi	t3,a3,10
    33a8:	010e1313          	slli	t1,t3,0x10
    33ac:	41035093          	srai	ra,t1,0x10
    33b0:	4c81                	li	s9,0
    33b2:	01009293          	slli	t0,ra,0x10
    33b6:	01ec88b3          	add	a7,s9,t5
    33ba:	0805                	addi	a6,a6,1
    33bc:	0611                	addi	a2,a2,4
    33be:	0102df93          	srli	t6,t0,0x10
    33c2:	09145d63          	bge	s0,a7,345c <matrix_test+0xba8>
    33c6:	00af8593          	addi	a1,t6,10
    33ca:	4258                	lw	a4,4(a2)
    33cc:	01059693          	slli	a3,a1,0x10
    33d0:	4106dc93          	srai	s9,a3,0x10
    33d4:	4881                	li	a7,0
    33d6:	010c9793          	slli	a5,s9,0x10
    33da:	00e88eb3          	add	t4,a7,a4
    33de:	0107d093          	srli	ra,a5,0x10
    33e2:	09d44e63          	blt	s0,t4,347e <matrix_test+0xbca>
    33e6:	00ef2e33          	slt	t3,t5,a4
    33ea:	01c08333          	add	t1,ra,t3
    33ee:	00862883          	lw	a7,8(a2)
    33f2:	01031f13          	slli	t5,t1,0x10
    33f6:	410f5d93          	srai	s11,t5,0x10
    33fa:	010d9513          	slli	a0,s11,0x10
    33fe:	011e85b3          	add	a1,t4,a7
    3402:	01055c93          	srli	s9,a0,0x10
    3406:	08b44d63          	blt	s0,a1,34a0 <matrix_test+0xbec>
    340a:	011726b3          	slt	a3,a4,a7
    340e:	00dc8733          	add	a4,s9,a3
    3412:	01071793          	slli	a5,a4,0x10
    3416:	080d                	addi	a6,a6,3
    3418:	4107d513          	srai	a0,a5,0x10
    341c:	0631                	addi	a2,a2,12
    341e:	08987c63          	bgeu	a6,s1,34b6 <matrix_test+0xc02>
    3422:	00062e83          	lw	t4,0(a2)
    3426:	0542                	slli	a0,a0,0x10
    3428:	01055693          	srli	a3,a0,0x10
    342c:	01d58cb3          	add	s9,a1,t4
    3430:	f79448e3          	blt	s0,s9,33a0 <matrix_test+0xaec>
    3434:	01d8a8b3          	slt	a7,a7,t4
    3438:	01168733          	add	a4,a3,a7
    343c:	00462f03          	lw	t5,4(a2)
    3440:	01071793          	slli	a5,a4,0x10
    3444:	4107d093          	srai	ra,a5,0x10
    3448:	01009293          	slli	t0,ra,0x10
    344c:	01ec88b3          	add	a7,s9,t5
    3450:	0805                	addi	a6,a6,1
    3452:	0611                	addi	a2,a2,4
    3454:	0102df93          	srli	t6,t0,0x10
    3458:	f71447e3          	blt	s0,a7,33c6 <matrix_test+0xb12>
    345c:	01eeadb3          	slt	s11,t4,t5
    3460:	01bf8eb3          	add	t4,t6,s11
    3464:	4258                	lw	a4,4(a2)
    3466:	010e9513          	slli	a0,t4,0x10
    346a:	41055c93          	srai	s9,a0,0x10
    346e:	010c9793          	slli	a5,s9,0x10
    3472:	00e88eb3          	add	t4,a7,a4
    3476:	0107d093          	srli	ra,a5,0x10
    347a:	f7d456e3          	bge	s0,t4,33e6 <matrix_test+0xb32>
    347e:	00a08293          	addi	t0,ra,10
    3482:	00862883          	lw	a7,8(a2)
    3486:	01029f93          	slli	t6,t0,0x10
    348a:	410fdd93          	srai	s11,t6,0x10
    348e:	4e81                	li	t4,0
    3490:	010d9513          	slli	a0,s11,0x10
    3494:	011e85b3          	add	a1,t4,a7
    3498:	01055c93          	srli	s9,a0,0x10
    349c:	f6b457e3          	bge	s0,a1,340a <matrix_test+0xb56>
    34a0:	00ac8593          	addi	a1,s9,10
    34a4:	01059093          	slli	ra,a1,0x10
    34a8:	080d                	addi	a6,a6,3
    34aa:	4100d513          	srai	a0,ra,0x10
    34ae:	4581                	li	a1,0
    34b0:	0631                	addi	a2,a2,12
    34b2:	f69868e3          	bltu	a6,s1,3422 <matrix_test+0xb6e>
    34b6:	0385                	addi	t2,t2,1
    34b8:	9c56                	add	s8,s8,s5
    34ba:	8e46                	mv	t3,a7
    34bc:	e293e4e3          	bltu	t2,s1,32e4 <matrix_test+0xa30>
    34c0:	85de                	mv	a1,s7
    34c2:	322020ef          	jal	ra,57e4 <crc16>
    34c6:	4642                	lw	a2,16(sp)
    34c8:	45b2                	lw	a1,12(sp)
    34ca:	86da                	mv	a3,s6
    34cc:	8baa                	mv	s7,a0
    34ce:	8526                	mv	a0,s1
    34d0:	749000ef          	jal	ra,4418 <matrix_mul_matrix_bitextract>
    34d4:	4501                	li	a0,0
    34d6:	4b01                	li	s6,0
    34d8:	4e81                	li	t4,0
    34da:	4c01                	li	s8,0
    34dc:	000a2683          	lw	a3,0(s4)
    34e0:	fff48393          	addi	t2,s1,-1
    34e4:	01051313          	slli	t1,a0,0x10
    34e8:	9eb6                	add	t4,t4,a3
    34ea:	0033fe13          	andi	t3,t2,3
    34ee:	01035f13          	srli	t5,t1,0x10
    34f2:	33d45d63          	bge	s0,t4,382c <matrix_test+0xf78>
    34f6:	00af0e93          	addi	t4,t5,10
    34fa:	010e9893          	slli	a7,t4,0x10
    34fe:	4108d513          	srai	a0,a7,0x10
    3502:	4e81                	li	t4,0
    3504:	4585                	li	a1,1
    3506:	004a0613          	addi	a2,s4,4
    350a:	88b6                	mv	a7,a3
    350c:	1a95f463          	bgeu	a1,s1,36b4 <matrix_test+0xe00>
    3510:	100e0563          	beqz	t3,361a <matrix_test+0xd66>
    3514:	04be0b63          	beq	t3,a1,356a <matrix_test+0xcb6>
    3518:	4c89                	li	s9,2
    351a:	039e0463          	beq	t3,s9,3542 <matrix_test+0xc8e>
    351e:	00062883          	lw	a7,0(a2)
    3522:	0542                	slli	a0,a0,0x10
    3524:	01055713          	srli	a4,a0,0x10
    3528:	9ec6                	add	t4,t4,a7
    352a:	39d44563          	blt	s0,t4,38b4 <matrix_test+0x1000>
    352e:	0116a6b3          	slt	a3,a3,a7
    3532:	00d707b3          	add	a5,a4,a3
    3536:	01079093          	slli	ra,a5,0x10
    353a:	4100d513          	srai	a0,ra,0x10
    353e:	0585                	addi	a1,a1,1
    3540:	0611                	addi	a2,a2,4
    3542:	00062383          	lw	t2,0(a2)
    3546:	01051e13          	slli	t3,a0,0x10
    354a:	010e5313          	srli	t1,t3,0x10
    354e:	9e9e                	add	t4,t4,t2
    3550:	35d44263          	blt	s0,t4,3894 <matrix_test+0xfe0>
    3554:	0078af33          	slt	t5,a7,t2
    3558:	01e302b3          	add	t0,t1,t5
    355c:	01029f93          	slli	t6,t0,0x10
    3560:	410fd513          	srai	a0,t6,0x10
    3564:	0585                	addi	a1,a1,1
    3566:	0611                	addi	a2,a2,4
    3568:	889e                	mv	a7,t2
    356a:	4214                	lw	a3,0(a2)
    356c:	01051c93          	slli	s9,a0,0x10
    3570:	010cd513          	srli	a0,s9,0x10
    3574:	9eb6                	add	t4,t4,a3
    3576:	2fd44763          	blt	s0,t4,3864 <matrix_test+0xfb0>
    357a:	00d8a733          	slt	a4,a7,a3
    357e:	00e507b3          	add	a5,a0,a4
    3582:	01079093          	slli	ra,a5,0x10
    3586:	4100d513          	srai	a0,ra,0x10
    358a:	0585                	addi	a1,a1,1
    358c:	0611                	addi	a2,a2,4
    358e:	0895e663          	bltu	a1,s1,361a <matrix_test+0xd66>
    3592:	a20d                	j	36b4 <matrix_test+0xe00>
    3594:	00a30e93          	addi	t4,t1,10
    3598:	00462c83          	lw	s9,4(a2)
    359c:	010e9893          	slli	a7,t4,0x10
    35a0:	4108dd93          	srai	s11,a7,0x10
    35a4:	4f01                	li	t5,0
    35a6:	00158713          	addi	a4,a1,1
    35aa:	019f0333          	add	t1,t5,s9
    35ae:	010d9593          	slli	a1,s11,0x10
    35b2:	0611                	addi	a2,a2,4
    35b4:	0105d513          	srli	a0,a1,0x10
    35b8:	0a645063          	bge	s0,t1,3658 <matrix_test+0xda4>
    35bc:	00a50813          	addi	a6,a0,10
    35c0:	00462f03          	lw	t5,4(a2)
    35c4:	01081393          	slli	t2,a6,0x10
    35c8:	4103de13          	srai	t3,t2,0x10
    35cc:	4301                	li	t1,0
    35ce:	010e1693          	slli	a3,t3,0x10
    35d2:	01e307b3          	add	a5,t1,t5
    35d6:	0106d293          	srli	t0,a3,0x10
    35da:	0af44163          	blt	s0,a5,367c <matrix_test+0xdc8>
    35de:	01ecafb3          	slt	t6,s9,t5
    35e2:	01f28db3          	add	s11,t0,t6
    35e6:	4614                	lw	a3,8(a2)
    35e8:	010d9e93          	slli	t4,s11,0x10
    35ec:	410ed593          	srai	a1,t4,0x10
    35f0:	01059513          	slli	a0,a1,0x10
    35f4:	00d78eb3          	add	t4,a5,a3
    35f8:	01055093          	srli	ra,a0,0x10
    35fc:	0bd44063          	blt	s0,t4,369c <matrix_test+0xde8>
    3600:	00df2b33          	slt	s6,t5,a3
    3604:	016083b3          	add	t2,ra,s6
    3608:	01039e13          	slli	t3,t2,0x10
    360c:	00370593          	addi	a1,a4,3
    3610:	410e5513          	srai	a0,t3,0x10
    3614:	0631                	addi	a2,a2,12
    3616:	0895ff63          	bgeu	a1,s1,36b4 <matrix_test+0xe00>
    361a:	00062383          	lw	t2,0(a2)
    361e:	01051e13          	slli	t3,a0,0x10
    3622:	010e5313          	srli	t1,t3,0x10
    3626:	007e8f33          	add	t5,t4,t2
    362a:	f7e445e3          	blt	s0,t5,3594 <matrix_test+0xce0>
    362e:	0076a6b3          	slt	a3,a3,t2
    3632:	00d302b3          	add	t0,t1,a3
    3636:	00462c83          	lw	s9,4(a2)
    363a:	01029f93          	slli	t6,t0,0x10
    363e:	410fdd93          	srai	s11,t6,0x10
    3642:	00158713          	addi	a4,a1,1
    3646:	019f0333          	add	t1,t5,s9
    364a:	010d9593          	slli	a1,s11,0x10
    364e:	0611                	addi	a2,a2,4
    3650:	0105d513          	srli	a0,a1,0x10
    3654:	f66444e3          	blt	s0,t1,35bc <matrix_test+0xd08>
    3658:	0193a7b3          	slt	a5,t2,s9
    365c:	00f500b3          	add	ra,a0,a5
    3660:	00462f03          	lw	t5,4(a2)
    3664:	01009b13          	slli	s6,ra,0x10
    3668:	410b5e13          	srai	t3,s6,0x10
    366c:	010e1693          	slli	a3,t3,0x10
    3670:	01e307b3          	add	a5,t1,t5
    3674:	0106d293          	srli	t0,a3,0x10
    3678:	f6f453e3          	bge	s0,a5,35de <matrix_test+0xd2a>
    367c:	00a28893          	addi	a7,t0,10
    3680:	4614                	lw	a3,8(a2)
    3682:	01089c93          	slli	s9,a7,0x10
    3686:	410cd593          	srai	a1,s9,0x10
    368a:	4781                	li	a5,0
    368c:	01059513          	slli	a0,a1,0x10
    3690:	00d78eb3          	add	t4,a5,a3
    3694:	01055093          	srli	ra,a0,0x10
    3698:	f7d454e3          	bge	s0,t4,3600 <matrix_test+0xd4c>
    369c:	00a08813          	addi	a6,ra,10
    36a0:	01081313          	slli	t1,a6,0x10
    36a4:	00370593          	addi	a1,a4,3
    36a8:	41035513          	srai	a0,t1,0x10
    36ac:	4e81                	li	t4,0
    36ae:	0631                	addi	a2,a2,12
    36b0:	f695e5e3          	bltu	a1,s1,361a <matrix_test+0xd66>
    36b4:	0c05                	addi	s8,s8,1
    36b6:	9a56                	add	s4,s4,s5
    36b8:	8b36                	mv	s6,a3
    36ba:	e29c61e3          	bltu	s8,s1,34dc <matrix_test+0xc28>
    36be:	85de                	mv	a1,s7
    36c0:	124020ef          	jal	ra,57e4 <crc16>
    36c4:	4a01                	li	s4,0
    36c6:	0001                	nop
    36c8:	0009d403          	lhu	s0,0(s3)
    36cc:	fff48a93          	addi	s5,s1,-1
    36d0:	4705                	li	a4,1
    36d2:	41240bb3          	sub	s7,s0,s2
    36d6:	01799023          	sh	s7,0(s3)
    36da:	007afc13          	andi	s8,s5,7
    36de:	00298793          	addi	a5,s3,2
    36e2:	10977463          	bgeu	a4,s1,37ea <matrix_test+0xf36>
    36e6:	080c0e63          	beqz	s8,3782 <matrix_test+0xece>
    36ea:	08ec0263          	beq	s8,a4,376e <matrix_test+0xeba>
    36ee:	4f09                	li	t5,2
    36f0:	07ec0763          	beq	s8,t5,375e <matrix_test+0xeaa>
    36f4:	428d                	li	t0,3
    36f6:	045c0c63          	beq	s8,t0,374e <matrix_test+0xe9a>
    36fa:	4f91                	li	t6,4
    36fc:	05fc0163          	beq	s8,t6,373e <matrix_test+0xe8a>
    3700:	4d95                	li	s11,5
    3702:	03bc0663          	beq	s8,s11,372e <matrix_test+0xe7a>
    3706:	4899                	li	a7,6
    3708:	011c0b63          	beq	s8,a7,371e <matrix_test+0xe6a>
    370c:	0007dc83          	lhu	s9,0(a5)
    3710:	4709                	li	a4,2
    3712:	412c86b3          	sub	a3,s9,s2
    3716:	00d79023          	sh	a3,0(a5)
    371a:	00498793          	addi	a5,s3,4
    371e:	0007d083          	lhu	ra,0(a5)
    3722:	0705                	addi	a4,a4,1
    3724:	0789                	addi	a5,a5,2
    3726:	41208b33          	sub	s6,ra,s2
    372a:	ff679f23          	sh	s6,-2(a5)
    372e:	0007d383          	lhu	t2,0(a5)
    3732:	0705                	addi	a4,a4,1
    3734:	0789                	addi	a5,a5,2
    3736:	41238e33          	sub	t3,t2,s2
    373a:	ffc79f23          	sh	t3,-2(a5)
    373e:	0007d803          	lhu	a6,0(a5)
    3742:	0705                	addi	a4,a4,1
    3744:	0789                	addi	a5,a5,2
    3746:	41280333          	sub	t1,a6,s2
    374a:	fe679f23          	sh	t1,-2(a5)
    374e:	0007de83          	lhu	t4,0(a5)
    3752:	0705                	addi	a4,a4,1
    3754:	0789                	addi	a5,a5,2
    3756:	412e85b3          	sub	a1,t4,s2
    375a:	feb79f23          	sh	a1,-2(a5)
    375e:	0007d603          	lhu	a2,0(a5)
    3762:	0705                	addi	a4,a4,1
    3764:	0789                	addi	a5,a5,2
    3766:	41260433          	sub	s0,a2,s2
    376a:	fe879f23          	sh	s0,-2(a5)
    376e:	0007da83          	lhu	s5,0(a5)
    3772:	0789                	addi	a5,a5,2
    3774:	0705                	addi	a4,a4,1
    3776:	412a8bb3          	sub	s7,s5,s2
    377a:	ff779f23          	sh	s7,-2(a5)
    377e:	06977663          	bgeu	a4,s1,37ea <matrix_test+0xf36>
    3782:	0007dc03          	lhu	s8,0(a5)
    3786:	0027d283          	lhu	t0,2(a5)
    378a:	0047df83          	lhu	t6,4(a5)
    378e:	0067dd83          	lhu	s11,6(a5)
    3792:	0087dc83          	lhu	s9,8(a5)
    3796:	00a7d083          	lhu	ra,10(a5)
    379a:	00c7db03          	lhu	s6,12(a5)
    379e:	00e7d683          	lhu	a3,14(a5)
    37a2:	412c0f33          	sub	t5,s8,s2
    37a6:	412283b3          	sub	t2,t0,s2
    37aa:	412f8e33          	sub	t3,t6,s2
    37ae:	412d88b3          	sub	a7,s11,s2
    37b2:	412c8833          	sub	a6,s9,s2
    37b6:	41208333          	sub	t1,ra,s2
    37ba:	412b0eb3          	sub	t4,s6,s2
    37be:	412685b3          	sub	a1,a3,s2
    37c2:	01e79023          	sh	t5,0(a5)
    37c6:	00779123          	sh	t2,2(a5)
    37ca:	01c79223          	sh	t3,4(a5)
    37ce:	01179323          	sh	a7,6(a5)
    37d2:	01079423          	sh	a6,8(a5)
    37d6:	00679523          	sh	t1,10(a5)
    37da:	01d79623          	sh	t4,12(a5)
    37de:	00b79723          	sh	a1,14(a5)
    37e2:	0721                	addi	a4,a4,8
    37e4:	07c1                	addi	a5,a5,16
    37e6:	f8976ee3          	bltu	a4,s1,3782 <matrix_test+0xece>
    37ea:	0a05                	addi	s4,s4,1
    37ec:	99ea                	add	s3,s3,s10
    37ee:	ec9a6de3          	bltu	s4,s1,36c8 <matrix_test+0xe14>
    37f2:	40f6                	lw	ra,92(sp)
    37f4:	4466                	lw	s0,88(sp)
    37f6:	01051493          	slli	s1,a0,0x10
    37fa:	4104d513          	srai	a0,s1,0x10
    37fe:	4946                	lw	s2,80(sp)
    3800:	44d6                	lw	s1,84(sp)
    3802:	49b6                	lw	s3,76(sp)
    3804:	4a26                	lw	s4,72(sp)
    3806:	4a96                	lw	s5,68(sp)
    3808:	4b06                	lw	s6,64(sp)
    380a:	5bf2                	lw	s7,60(sp)
    380c:	5c62                	lw	s8,56(sp)
    380e:	5cd2                	lw	s9,52(sp)
    3810:	5d42                	lw	s10,48(sp)
    3812:	5db2                	lw	s11,44(sp)
    3814:	6125                	addi	sp,sp,96
    3816:	8082                	ret
    3818:	011e2db3          	slt	s11,t3,a7
    381c:	01bf8533          	add	a0,t6,s11
    3820:	01051e93          	slli	t4,a0,0x10
    3824:	410ed513          	srai	a0,t4,0x10
    3828:	b4d5                	j	330c <matrix_test+0xa58>
    382a:	0001                	nop
    382c:	00db22b3          	slt	t0,s6,a3
    3830:	005f0fb3          	add	t6,t5,t0
    3834:	010f9d93          	slli	s11,t6,0x10
    3838:	410dd513          	srai	a0,s11,0x10
    383c:	b1e1                	j	3504 <matrix_test+0xc50>
    383e:	0001                	nop
    3840:	0110a6b3          	slt	a3,ra,a7
    3844:	00d60533          	add	a0,a2,a3
    3848:	01051e93          	slli	t4,a0,0x10
    384c:	410ed513          	srai	a0,t4,0x10
    3850:	b0c1                	j	3110 <matrix_test+0x85c>
    3852:	0001                	nop
    3854:	00a30593          	addi	a1,t1,10
    3858:	01059d93          	slli	s11,a1,0x10
    385c:	410dd513          	srai	a0,s11,0x10
    3860:	4581                	li	a1,0
    3862:	be15                	j	3396 <matrix_test+0xae2>
    3864:	00a50813          	addi	a6,a0,10
    3868:	01081b13          	slli	s6,a6,0x10
    386c:	410b5513          	srai	a0,s6,0x10
    3870:	4e81                	li	t4,0
    3872:	bb21                	j	358a <matrix_test+0xcd6>
    3874:	00ab8293          	addi	t0,s7,10
    3878:	01029f93          	slli	t6,t0,0x10
    387c:	410fd513          	srai	a0,t6,0x10
    3880:	4581                	li	a1,0
    3882:	ba21                	j	319a <matrix_test+0x8e6>
    3884:	00a50593          	addi	a1,a0,10
    3888:	01059093          	slli	ra,a1,0x10
    388c:	4100d513          	srai	a0,ra,0x10
    3890:	4581                	li	a1,0
    3892:	b0c5                	j	3172 <matrix_test+0x8be>
    3894:	00a30d93          	addi	s11,t1,10
    3898:	010d9e93          	slli	t4,s11,0x10
    389c:	410ed513          	srai	a0,t4,0x10
    38a0:	4e81                	li	t4,0
    38a2:	b1c9                	j	3564 <matrix_test+0xcb0>
    38a4:	00a50713          	addi	a4,a0,10
    38a8:	01071793          	slli	a5,a4,0x10
    38ac:	4107d513          	srai	a0,a5,0x10
    38b0:	4581                	li	a1,0
    38b2:	bc75                	j	336e <matrix_test+0xaba>
    38b4:	00a70813          	addi	a6,a4,10
    38b8:	01081b13          	slli	s6,a6,0x10
    38bc:	410b5513          	srai	a0,s6,0x10
    38c0:	4e81                	li	t4,0
    38c2:	b9b5                	j	353e <matrix_test+0xc8a>
    38c4:	00ae0593          	addi	a1,t3,10
    38c8:	01059293          	slli	t0,a1,0x10
    38cc:	4102d513          	srai	a0,t0,0x10
    38d0:	4581                	li	a1,0
    38d2:	bc95                	j	3346 <matrix_test+0xa92>
    38d4:	00ab8f13          	addi	t5,s7,10
    38d8:	010f1293          	slli	t0,t5,0x10
    38dc:	4102d513          	srai	a0,t0,0x10
    38e0:	4581                	li	a1,0
    38e2:	b0ad                	j	314c <matrix_test+0x898>
    38e4:	00a78593          	addi	a1,a5,10
    38e8:	01059e93          	slli	t4,a1,0x10
    38ec:	410ed513          	srai	a0,t4,0x10
    38f0:	4581                	li	a1,0
    38f2:	aecff06f          	j	2bde <matrix_test+0x32a>
    38f6:	4581                	li	a1,0
    38f8:	6ed010ef          	jal	ra,57e4 <crc16>
    38fc:	85aa                	mv	a1,a0
    38fe:	4501                	li	a0,0
    3900:	6e5010ef          	jal	ra,57e4 <crc16>
    3904:	4942                	lw	s2,16(sp)
    3906:	44b2                	lw	s1,12(sp)
    3908:	86da                	mv	a3,s6
    390a:	864a                	mv	a2,s2
    390c:	89aa                	mv	s3,a0
    390e:	85a6                	mv	a1,s1
    3910:	4501                	li	a0,0
    3912:	127000ef          	jal	ra,4238 <matrix_mul_matrix>
    3916:	85ce                	mv	a1,s3
    3918:	4501                	li	a0,0
    391a:	6cb010ef          	jal	ra,57e4 <crc16>
    391e:	8a2a                	mv	s4,a0
    3920:	85a6                	mv	a1,s1
    3922:	86da                	mv	a3,s6
    3924:	864a                	mv	a2,s2
    3926:	4501                	li	a0,0
    3928:	2f1000ef          	jal	ra,4418 <matrix_mul_matrix_bitextract>
    392c:	85d2                	mv	a1,s4
    392e:	4501                	li	a0,0
    3930:	6b5010ef          	jal	ra,57e4 <crc16>
    3934:	bd7d                	j	37f2 <matrix_test+0xf3e>
    3936:	0001                	nop

00003938 <core_bench_matrix>:
    3938:	1141                	addi	sp,sp,-16
    393a:	c422                	sw	s0,8(sp)
    393c:	872e                	mv	a4,a1
    393e:	8432                	mv	s0,a2
    3940:	454c                	lw	a1,12(a0)
    3942:	4514                	lw	a3,8(a0)
    3944:	4150                	lw	a2,4(a0)
    3946:	4108                	lw	a0,0(a0)
    3948:	c606                	sw	ra,12(sp)
    394a:	f6bfe0ef          	jal	ra,28b4 <matrix_test>
    394e:	85a2                	mv	a1,s0
    3950:	4422                	lw	s0,8(sp)
    3952:	40b2                	lw	ra,12(sp)
    3954:	0141                	addi	sp,sp,16
    3956:	68f0106f          	j	57e4 <crc16>
	...

0000395c <matrix_sum>:
    395c:	3e050363          	beqz	a0,3d42 <matrix_sum+0x3e6>
    3960:	40a00833          	neg	a6,a0
    3964:	00251713          	slli	a4,a0,0x2
    3968:	972e                	add	a4,a4,a1
    396a:	00281893          	slli	a7,a6,0x2
    396e:	4581                	li	a1,0
    3970:	4781                	li	a5,0
    3972:	4f01                	li	t5,0
    3974:	4e01                	li	t3,0
    3976:	080e                	slli	a6,a6,0x3
    3978:	00e886b3          	add	a3,a7,a4
    397c:	40d70eb3          	sub	t4,a4,a3
    3980:	ffce8293          	addi	t0,t4,-4
    3984:	0022d313          	srli	t1,t0,0x2
    3988:	00130393          	addi	t2,t1,1
    398c:	0073fe93          	andi	t4,t2,7
    3990:	8336                	mv	t1,a3
    3992:	200e8b63          	beqz	t4,3ba8 <matrix_sum+0x24c>
    3996:	4f85                	li	t6,1
    3998:	11fe8163          	beq	t4,t6,3a9a <matrix_sum+0x13e>
    399c:	4289                	li	t0,2
    399e:	0c5e8b63          	beq	t4,t0,3a74 <matrix_sum+0x118>
    39a2:	438d                	li	t2,3
    39a4:	0a7e8563          	beq	t4,t2,3a4e <matrix_sum+0xf2>
    39a8:	4f91                	li	t6,4
    39aa:	07fe8f63          	beq	t4,t6,3a28 <matrix_sum+0xcc>
    39ae:	4295                	li	t0,5
    39b0:	045e8a63          	beq	t4,t0,3a04 <matrix_sum+0xa8>
    39b4:	4399                	li	t2,6
    39b6:	027e8563          	beq	t4,t2,39e0 <matrix_sum+0x84>
    39ba:	0006ae83          	lw	t4,0(a3)
    39be:	07c2                	slli	a5,a5,0x10
    39c0:	0107d313          	srli	t1,a5,0x10
    39c4:	9e76                	add	t3,t3,t4
    39c6:	37c64663          	blt	a2,t3,3d32 <matrix_sum+0x3d6>
    39ca:	01df2f33          	slt	t5,t5,t4
    39ce:	01e30fb3          	add	t6,t1,t5
    39d2:	010f9293          	slli	t0,t6,0x10
    39d6:	4102d793          	srai	a5,t0,0x10
    39da:	00468313          	addi	t1,a3,4
    39de:	8f76                	mv	t5,t4
    39e0:	00032e83          	lw	t4,0(t1)
    39e4:	07c2                	slli	a5,a5,0x10
    39e6:	0107df93          	srli	t6,a5,0x10
    39ea:	9e76                	add	t3,t3,t4
    39ec:	33c64c63          	blt	a2,t3,3d24 <matrix_sum+0x3c8>
    39f0:	01df2f33          	slt	t5,t5,t4
    39f4:	01ef82b3          	add	t0,t6,t5
    39f8:	01029393          	slli	t2,t0,0x10
    39fc:	4103d793          	srai	a5,t2,0x10
    3a00:	0311                	addi	t1,t1,4
    3a02:	8f76                	mv	t5,t4
    3a04:	00032e83          	lw	t4,0(t1)
    3a08:	01079f93          	slli	t6,a5,0x10
    3a0c:	010fd293          	srli	t0,t6,0x10
    3a10:	9e76                	add	t3,t3,t4
    3a12:	31c64163          	blt	a2,t3,3d14 <matrix_sum+0x3b8>
    3a16:	01df2f33          	slt	t5,t5,t4
    3a1a:	01e283b3          	add	t2,t0,t5
    3a1e:	01039793          	slli	a5,t2,0x10
    3a22:	87c1                	srai	a5,a5,0x10
    3a24:	0311                	addi	t1,t1,4
    3a26:	8f76                	mv	t5,t4
    3a28:	00032e83          	lw	t4,0(t1)
    3a2c:	01079293          	slli	t0,a5,0x10
    3a30:	0102d393          	srli	t2,t0,0x10
    3a34:	9e76                	add	t3,t3,t4
    3a36:	2dc64763          	blt	a2,t3,3d04 <matrix_sum+0x3a8>
    3a3a:	01df2f33          	slt	t5,t5,t4
    3a3e:	01e387b3          	add	a5,t2,t5
    3a42:	01079f93          	slli	t6,a5,0x10
    3a46:	410fd793          	srai	a5,t6,0x10
    3a4a:	0311                	addi	t1,t1,4
    3a4c:	8f76                	mv	t5,t4
    3a4e:	00032e83          	lw	t4,0(t1)
    3a52:	01079393          	slli	t2,a5,0x10
    3a56:	0103df93          	srli	t6,t2,0x10
    3a5a:	9e76                	add	t3,t3,t4
    3a5c:	29c64c63          	blt	a2,t3,3cf4 <matrix_sum+0x398>
    3a60:	01df2f33          	slt	t5,t5,t4
    3a64:	01ef87b3          	add	a5,t6,t5
    3a68:	01079293          	slli	t0,a5,0x10
    3a6c:	4102d793          	srai	a5,t0,0x10
    3a70:	0311                	addi	t1,t1,4
    3a72:	8f76                	mv	t5,t4
    3a74:	00032f83          	lw	t6,0(t1)
    3a78:	01079e93          	slli	t4,a5,0x10
    3a7c:	010ed293          	srli	t0,t4,0x10
    3a80:	9e7e                	add	t3,t3,t6
    3a82:	27c64163          	blt	a2,t3,3ce4 <matrix_sum+0x388>
    3a86:	01ff2f33          	slt	t5,t5,t6
    3a8a:	01e287b3          	add	a5,t0,t5
    3a8e:	01079393          	slli	t2,a5,0x10
    3a92:	4103d793          	srai	a5,t2,0x10
    3a96:	0311                	addi	t1,t1,4
    3a98:	8f7e                	mv	t5,t6
    3a9a:	00032f83          	lw	t6,0(t1)
    3a9e:	01079293          	slli	t0,a5,0x10
    3aa2:	0102d793          	srli	a5,t0,0x10
    3aa6:	9e7e                	add	t3,t3,t6
    3aa8:	23c64663          	blt	a2,t3,3cd4 <matrix_sum+0x378>
    3aac:	01ff2f33          	slt	t5,t5,t6
    3ab0:	01e783b3          	add	t2,a5,t5
    3ab4:	01039e93          	slli	t4,t2,0x10
    3ab8:	410ed793          	srai	a5,t4,0x10
    3abc:	0311                	addi	t1,t1,4
    3abe:	8f7e                	mv	t5,t6
    3ac0:	0e671463          	bne	a4,t1,3ba8 <matrix_sum+0x24c>
    3ac4:	a2fd                	j	3cb2 <matrix_sum+0x356>
    3ac6:	0001                	nop
    3ac8:	00a28e93          	addi	t4,t0,10
    3acc:	00432f83          	lw	t6,4(t1)
    3ad0:	010e9e13          	slli	t3,t4,0x10
    3ad4:	410e5293          	srai	t0,t3,0x10
    3ad8:	4e01                	li	t3,0
    3ada:	01029793          	slli	a5,t0,0x10
    3ade:	9e7e                	add	t3,t3,t6
    3ae0:	0107d393          	srli	t2,a5,0x10
    3ae4:	11c64d63          	blt	a2,t3,3bfe <matrix_sum+0x2a2>
    3ae8:	01ff2f33          	slt	t5,t5,t6
    3aec:	01e38eb3          	add	t4,t2,t5
    3af0:	00832f03          	lw	t5,8(t1)
    3af4:	010e9293          	slli	t0,t4,0x10
    3af8:	4102d393          	srai	t2,t0,0x10
    3afc:	01039e93          	slli	t4,t2,0x10
    3b00:	9e7a                	add	t3,t3,t5
    3b02:	010ed293          	srli	t0,t4,0x10
    3b06:	11c64c63          	blt	a2,t3,3c1e <matrix_sum+0x2c2>
    3b0a:	01efafb3          	slt	t6,t6,t5
    3b0e:	01f287b3          	add	a5,t0,t6
    3b12:	00c32f83          	lw	t6,12(t1)
    3b16:	01079393          	slli	t2,a5,0x10
    3b1a:	4103d293          	srai	t0,t2,0x10
    3b1e:	01029793          	slli	a5,t0,0x10
    3b22:	9e7e                	add	t3,t3,t6
    3b24:	0107d393          	srli	t2,a5,0x10
    3b28:	11c64b63          	blt	a2,t3,3c3e <matrix_sum+0x2e2>
    3b2c:	01ff2f33          	slt	t5,t5,t6
    3b30:	01e38eb3          	add	t4,t2,t5
    3b34:	01032f03          	lw	t5,16(t1)
    3b38:	010e9293          	slli	t0,t4,0x10
    3b3c:	4102d393          	srai	t2,t0,0x10
    3b40:	01039e93          	slli	t4,t2,0x10
    3b44:	9e7a                	add	t3,t3,t5
    3b46:	010ed293          	srli	t0,t4,0x10
    3b4a:	11c64a63          	blt	a2,t3,3c5e <matrix_sum+0x302>
    3b4e:	01efafb3          	slt	t6,t6,t5
    3b52:	01f287b3          	add	a5,t0,t6
    3b56:	01432f83          	lw	t6,20(t1)
    3b5a:	01079393          	slli	t2,a5,0x10
    3b5e:	4103d293          	srai	t0,t2,0x10
    3b62:	01029793          	slli	a5,t0,0x10
    3b66:	9e7e                	add	t3,t3,t6
    3b68:	0107d393          	srli	t2,a5,0x10
    3b6c:	11c64963          	blt	a2,t3,3c7e <matrix_sum+0x322>
    3b70:	01ff2f33          	slt	t5,t5,t6
    3b74:	01e38eb3          	add	t4,t2,t5
    3b78:	01832f03          	lw	t5,24(t1)
    3b7c:	010e9293          	slli	t0,t4,0x10
    3b80:	4102d393          	srai	t2,t0,0x10
    3b84:	01039e93          	slli	t4,t2,0x10
    3b88:	9e7a                	add	t3,t3,t5
    3b8a:	010ed293          	srli	t0,t4,0x10
    3b8e:	11c64863          	blt	a2,t3,3c9e <matrix_sum+0x342>
    3b92:	01efafb3          	slt	t6,t6,t5
    3b96:	01f287b3          	add	a5,t0,t6
    3b9a:	01079393          	slli	t2,a5,0x10
    3b9e:	0371                	addi	t1,t1,28
    3ba0:	4103d793          	srai	a5,t2,0x10
    3ba4:	10670763          	beq	a4,t1,3cb2 <matrix_sum+0x356>
    3ba8:	00032f83          	lw	t6,0(t1)
    3bac:	07c2                	slli	a5,a5,0x10
    3bae:	0107d393          	srli	t2,a5,0x10
    3bb2:	01fe0eb3          	add	t4,t3,t6
    3bb6:	11d65563          	bge	a2,t4,3cc0 <matrix_sum+0x364>
    3bba:	03a9                	addi	t2,t2,10
    3bbc:	01039e93          	slli	t4,t2,0x10
    3bc0:	410ed793          	srai	a5,t4,0x10
    3bc4:	4e81                	li	t4,0
    3bc6:	00432f03          	lw	t5,4(t1)
    3bca:	01079e13          	slli	t3,a5,0x10
    3bce:	010e5293          	srli	t0,t3,0x10
    3bd2:	01ee8e33          	add	t3,t4,t5
    3bd6:	0311                	addi	t1,t1,4
    3bd8:	efc648e3          	blt	a2,t3,3ac8 <matrix_sum+0x16c>
    3bdc:	01efafb3          	slt	t6,t6,t5
    3be0:	01f287b3          	add	a5,t0,t6
    3be4:	00432f83          	lw	t6,4(t1)
    3be8:	01079393          	slli	t2,a5,0x10
    3bec:	4103d293          	srai	t0,t2,0x10
    3bf0:	01029793          	slli	a5,t0,0x10
    3bf4:	9e7e                	add	t3,t3,t6
    3bf6:	0107d393          	srli	t2,a5,0x10
    3bfa:	efc657e3          	bge	a2,t3,3ae8 <matrix_sum+0x18c>
    3bfe:	00a38e13          	addi	t3,t2,10
    3c02:	00832f03          	lw	t5,8(t1)
    3c06:	010e1793          	slli	a5,t3,0x10
    3c0a:	4107d393          	srai	t2,a5,0x10
    3c0e:	4e01                	li	t3,0
    3c10:	01039e93          	slli	t4,t2,0x10
    3c14:	9e7a                	add	t3,t3,t5
    3c16:	010ed293          	srli	t0,t4,0x10
    3c1a:	efc658e3          	bge	a2,t3,3b0a <matrix_sum+0x1ae>
    3c1e:	00a28e13          	addi	t3,t0,10
    3c22:	00c32f83          	lw	t6,12(t1)
    3c26:	010e1e93          	slli	t4,t3,0x10
    3c2a:	410ed293          	srai	t0,t4,0x10
    3c2e:	4e01                	li	t3,0
    3c30:	01029793          	slli	a5,t0,0x10
    3c34:	9e7e                	add	t3,t3,t6
    3c36:	0107d393          	srli	t2,a5,0x10
    3c3a:	efc659e3          	bge	a2,t3,3b2c <matrix_sum+0x1d0>
    3c3e:	00a38e13          	addi	t3,t2,10
    3c42:	01032f03          	lw	t5,16(t1)
    3c46:	010e1793          	slli	a5,t3,0x10
    3c4a:	4107d393          	srai	t2,a5,0x10
    3c4e:	4e01                	li	t3,0
    3c50:	01039e93          	slli	t4,t2,0x10
    3c54:	9e7a                	add	t3,t3,t5
    3c56:	010ed293          	srli	t0,t4,0x10
    3c5a:	efc65ae3          	bge	a2,t3,3b4e <matrix_sum+0x1f2>
    3c5e:	00a28e13          	addi	t3,t0,10
    3c62:	01432f83          	lw	t6,20(t1)
    3c66:	010e1e93          	slli	t4,t3,0x10
    3c6a:	410ed293          	srai	t0,t4,0x10
    3c6e:	4e01                	li	t3,0
    3c70:	01029793          	slli	a5,t0,0x10
    3c74:	9e7e                	add	t3,t3,t6
    3c76:	0107d393          	srli	t2,a5,0x10
    3c7a:	efc65be3          	bge	a2,t3,3b70 <matrix_sum+0x214>
    3c7e:	00a38e13          	addi	t3,t2,10
    3c82:	01832f03          	lw	t5,24(t1)
    3c86:	010e1793          	slli	a5,t3,0x10
    3c8a:	4107d393          	srai	t2,a5,0x10
    3c8e:	4e01                	li	t3,0
    3c90:	01039e93          	slli	t4,t2,0x10
    3c94:	9e7a                	add	t3,t3,t5
    3c96:	010ed293          	srli	t0,t4,0x10
    3c9a:	efc65ce3          	bge	a2,t3,3b92 <matrix_sum+0x236>
    3c9e:	00a28e13          	addi	t3,t0,10
    3ca2:	010e1e93          	slli	t4,t3,0x10
    3ca6:	0371                	addi	t1,t1,28
    3ca8:	410ed793          	srai	a5,t4,0x10
    3cac:	4e01                	li	t3,0
    3cae:	ee671de3          	bne	a4,t1,3ba8 <matrix_sum+0x24c>
    3cb2:	0585                	addi	a1,a1,1
    3cb4:	41068733          	sub	a4,a3,a6
    3cb8:	ccb510e3          	bne	a0,a1,3978 <matrix_sum+0x1c>
    3cbc:	853e                	mv	a0,a5
    3cbe:	8082                	ret
    3cc0:	01ff2f33          	slt	t5,t5,t6
    3cc4:	01e38e33          	add	t3,t2,t5
    3cc8:	010e1293          	slli	t0,t3,0x10
    3ccc:	4102d793          	srai	a5,t0,0x10
    3cd0:	bddd                	j	3bc6 <matrix_sum+0x26a>
    3cd2:	0001                	nop
    3cd4:	00a78e13          	addi	t3,a5,10
    3cd8:	010e1293          	slli	t0,t3,0x10
    3cdc:	4102d793          	srai	a5,t0,0x10
    3ce0:	4e01                	li	t3,0
    3ce2:	bbe9                	j	3abc <matrix_sum+0x160>
    3ce4:	00a28e13          	addi	t3,t0,10
    3ce8:	010e1e93          	slli	t4,t3,0x10
    3cec:	410ed793          	srai	a5,t4,0x10
    3cf0:	4e01                	li	t3,0
    3cf2:	b355                	j	3a96 <matrix_sum+0x13a>
    3cf4:	00af8e13          	addi	t3,t6,10
    3cf8:	010e1393          	slli	t2,t3,0x10
    3cfc:	4103d793          	srai	a5,t2,0x10
    3d00:	4e01                	li	t3,0
    3d02:	b3bd                	j	3a70 <matrix_sum+0x114>
    3d04:	00a38e13          	addi	t3,t2,10
    3d08:	010e1293          	slli	t0,t3,0x10
    3d0c:	4102d793          	srai	a5,t0,0x10
    3d10:	4e01                	li	t3,0
    3d12:	bb25                	j	3a4a <matrix_sum+0xee>
    3d14:	00a28e13          	addi	t3,t0,10
    3d18:	010e1f93          	slli	t6,t3,0x10
    3d1c:	410fd793          	srai	a5,t6,0x10
    3d20:	4e01                	li	t3,0
    3d22:	b309                	j	3a24 <matrix_sum+0xc8>
    3d24:	00af8e13          	addi	t3,t6,10
    3d28:	010e1793          	slli	a5,t3,0x10
    3d2c:	87c1                	srai	a5,a5,0x10
    3d2e:	4e01                	li	t3,0
    3d30:	b9c1                	j	3a00 <matrix_sum+0xa4>
    3d32:	00a30e13          	addi	t3,t1,10
    3d36:	010e1393          	slli	t2,t3,0x10
    3d3a:	4103d793          	srai	a5,t2,0x10
    3d3e:	4e01                	li	t3,0
    3d40:	b969                	j	39da <matrix_sum+0x7e>
    3d42:	4781                	li	a5,0
    3d44:	853e                	mv	a0,a5
    3d46:	8082                	ret

00003d48 <matrix_mul_const>:
    3d48:	16050163          	beqz	a0,3eaa <matrix_mul_const+0x162>
    3d4c:	1141                	addi	sp,sp,-16
    3d4e:	40a003b3          	neg	t2,a0
    3d52:	00151813          	slli	a6,a0,0x1
    3d56:	c622                	sw	s0,12(sp)
    3d58:	c426                	sw	s1,8(sp)
    3d5a:	00139413          	slli	s0,t2,0x1
    3d5e:	c24a                	sw	s2,4(sp)
    3d60:	c04e                	sw	s3,0(sp)
    3d62:	00251493          	slli	s1,a0,0x2
    3d66:	9832                	add	a6,a6,a2
    3d68:	4281                	li	t0,0
    3d6a:	038a                	slli	t2,t2,0x2
    3d6c:	010408b3          	add	a7,s0,a6
    3d70:	41180633          	sub	a2,a6,a7
    3d74:	ffe60313          	addi	t1,a2,-2
    3d78:	00135713          	srli	a4,t1,0x1
    3d7c:	00170793          	addi	a5,a4,1
    3d80:	0077f913          	andi	s2,a5,7
    3d84:	872e                	mv	a4,a1
    3d86:	87c6                	mv	a5,a7
    3d88:	0a090063          	beqz	s2,3e28 <matrix_mul_const+0xe0>
    3d8c:	4985                	li	s3,1
    3d8e:	09390363          	beq	s2,s3,3e14 <matrix_mul_const+0xcc>
    3d92:	4e09                	li	t3,2
    3d94:	07c90863          	beq	s2,t3,3e04 <matrix_mul_const+0xbc>
    3d98:	4e8d                	li	t4,3
    3d9a:	05d90d63          	beq	s2,t4,3df4 <matrix_mul_const+0xac>
    3d9e:	4f11                	li	t5,4
    3da0:	05e90263          	beq	s2,t5,3de4 <matrix_mul_const+0x9c>
    3da4:	4f95                	li	t6,5
    3da6:	03f90763          	beq	s2,t6,3dd4 <matrix_mul_const+0x8c>
    3daa:	4619                	li	a2,6
    3dac:	00c90c63          	beq	s2,a2,3dc4 <matrix_mul_const+0x7c>
    3db0:	00089303          	lh	t1,0(a7)
    3db4:	00288793          	addi	a5,a7,2
    3db8:	00458713          	addi	a4,a1,4
    3dbc:	02d30933          	mul	s2,t1,a3
    3dc0:	0125a023          	sw	s2,0(a1)
    3dc4:	00079983          	lh	s3,0(a5)
    3dc8:	0711                	addi	a4,a4,4
    3dca:	0789                	addi	a5,a5,2
    3dcc:	02d98e33          	mul	t3,s3,a3
    3dd0:	ffc72e23          	sw	t3,-4(a4)
    3dd4:	00079e83          	lh	t4,0(a5)
    3dd8:	0711                	addi	a4,a4,4
    3dda:	0789                	addi	a5,a5,2
    3ddc:	02de8f33          	mul	t5,t4,a3
    3de0:	ffe72e23          	sw	t5,-4(a4)
    3de4:	00079f83          	lh	t6,0(a5)
    3de8:	0711                	addi	a4,a4,4
    3dea:	0789                	addi	a5,a5,2
    3dec:	02df8633          	mul	a2,t6,a3
    3df0:	fec72e23          	sw	a2,-4(a4)
    3df4:	00079303          	lh	t1,0(a5)
    3df8:	0711                	addi	a4,a4,4
    3dfa:	0789                	addi	a5,a5,2
    3dfc:	02d30933          	mul	s2,t1,a3
    3e00:	ff272e23          	sw	s2,-4(a4)
    3e04:	00079983          	lh	s3,0(a5)
    3e08:	0711                	addi	a4,a4,4
    3e0a:	0789                	addi	a5,a5,2
    3e0c:	02d98e33          	mul	t3,s3,a3
    3e10:	ffc72e23          	sw	t3,-4(a4)
    3e14:	00079e83          	lh	t4,0(a5)
    3e18:	0711                	addi	a4,a4,4
    3e1a:	0789                	addi	a5,a5,2
    3e1c:	02de8f33          	mul	t5,t4,a3
    3e20:	ffe72e23          	sw	t5,-4(a4)
    3e24:	07078763          	beq	a5,a6,3e92 <matrix_mul_const+0x14a>
    3e28:	00079983          	lh	s3,0(a5)
    3e2c:	00279903          	lh	s2,2(a5)
    3e30:	00479f83          	lh	t6,4(a5)
    3e34:	00679f03          	lh	t5,6(a5)
    3e38:	00879e83          	lh	t4,8(a5)
    3e3c:	00a79e03          	lh	t3,10(a5)
    3e40:	00c79303          	lh	t1,12(a5)
    3e44:	00e79603          	lh	a2,14(a5)
    3e48:	02d989b3          	mul	s3,s3,a3
    3e4c:	02070713          	addi	a4,a4,32
    3e50:	07c1                	addi	a5,a5,16
    3e52:	02d90933          	mul	s2,s2,a3
    3e56:	ff372023          	sw	s3,-32(a4)
    3e5a:	02df8fb3          	mul	t6,t6,a3
    3e5e:	ff272223          	sw	s2,-28(a4)
    3e62:	02df0f33          	mul	t5,t5,a3
    3e66:	fff72423          	sw	t6,-24(a4)
    3e6a:	02de8eb3          	mul	t4,t4,a3
    3e6e:	ffe72623          	sw	t5,-20(a4)
    3e72:	02de0e33          	mul	t3,t3,a3
    3e76:	ffd72823          	sw	t4,-16(a4)
    3e7a:	02d30333          	mul	t1,t1,a3
    3e7e:	ffc72a23          	sw	t3,-12(a4)
    3e82:	02d60633          	mul	a2,a2,a3
    3e86:	fe672c23          	sw	t1,-8(a4)
    3e8a:	fec72e23          	sw	a2,-4(a4)
    3e8e:	f9079de3          	bne	a5,a6,3e28 <matrix_mul_const+0xe0>
    3e92:	0285                	addi	t0,t0,1
    3e94:	95a6                	add	a1,a1,s1
    3e96:	40788833          	sub	a6,a7,t2
    3e9a:	ec5519e3          	bne	a0,t0,3d6c <matrix_mul_const+0x24>
    3e9e:	4432                	lw	s0,12(sp)
    3ea0:	44a2                	lw	s1,8(sp)
    3ea2:	4912                	lw	s2,4(sp)
    3ea4:	4982                	lw	s3,0(sp)
    3ea6:	0141                	addi	sp,sp,16
    3ea8:	8082                	ret
    3eaa:	8082                	ret

00003eac <matrix_add_const>:
    3eac:	1e050063          	beqz	a0,408c <matrix_add_const+0x1e0>
    3eb0:	40a002b3          	neg	t0,a0
    3eb4:	01061693          	slli	a3,a2,0x10
    3eb8:	00151793          	slli	a5,a0,0x1
    3ebc:	00129393          	slli	t2,t0,0x1
    3ec0:	82c1                	srli	a3,a3,0x10
    3ec2:	00f58633          	add	a2,a1,a5
    3ec6:	4f81                	li	t6,0
    3ec8:	028a                	slli	t0,t0,0x2
    3eca:	00c385b3          	add	a1,t2,a2
    3ece:	40b60733          	sub	a4,a2,a1
    3ed2:	ffe70313          	addi	t1,a4,-2
    3ed6:	00135813          	srli	a6,t1,0x1
    3eda:	00180893          	addi	a7,a6,1
    3ede:	0078fe13          	andi	t3,a7,7
    3ee2:	87ae                	mv	a5,a1
    3ee4:	080e0863          	beqz	t3,3f74 <matrix_add_const+0xc8>
    3ee8:	4e85                	li	t4,1
    3eea:	07de0c63          	beq	t3,t4,3f62 <matrix_add_const+0xb6>
    3eee:	4f09                	li	t5,2
    3ef0:	07ee0263          	beq	t3,t5,3f54 <matrix_add_const+0xa8>
    3ef4:	470d                	li	a4,3
    3ef6:	04ee0863          	beq	t3,a4,3f46 <matrix_add_const+0x9a>
    3efa:	4311                	li	t1,4
    3efc:	026e0e63          	beq	t3,t1,3f38 <matrix_add_const+0x8c>
    3f00:	4815                	li	a6,5
    3f02:	030e0463          	beq	t3,a6,3f2a <matrix_add_const+0x7e>
    3f06:	4899                	li	a7,6
    3f08:	011e0a63          	beq	t3,a7,3f1c <matrix_add_const+0x70>
    3f0c:	0005de03          	lhu	t3,0(a1)
    3f10:	00258793          	addi	a5,a1,2
    3f14:	01c68eb3          	add	t4,a3,t3
    3f18:	01d59023          	sh	t4,0(a1)
    3f1c:	0007df03          	lhu	t5,0(a5)
    3f20:	0789                	addi	a5,a5,2
    3f22:	01e68733          	add	a4,a3,t5
    3f26:	fee79f23          	sh	a4,-2(a5)
    3f2a:	0007d303          	lhu	t1,0(a5)
    3f2e:	0789                	addi	a5,a5,2
    3f30:	00668833          	add	a6,a3,t1
    3f34:	ff079f23          	sh	a6,-2(a5)
    3f38:	0007d883          	lhu	a7,0(a5)
    3f3c:	0789                	addi	a5,a5,2
    3f3e:	01168e33          	add	t3,a3,a7
    3f42:	ffc79f23          	sh	t3,-2(a5)
    3f46:	0007de83          	lhu	t4,0(a5)
    3f4a:	0789                	addi	a5,a5,2
    3f4c:	01d68f33          	add	t5,a3,t4
    3f50:	ffe79f23          	sh	t5,-2(a5)
    3f54:	0007d703          	lhu	a4,0(a5)
    3f58:	0789                	addi	a5,a5,2
    3f5a:	00e68333          	add	t1,a3,a4
    3f5e:	fe679f23          	sh	t1,-2(a5)
    3f62:	0007d803          	lhu	a6,0(a5)
    3f66:	0789                	addi	a5,a5,2
    3f68:	010688b3          	add	a7,a3,a6
    3f6c:	ff179f23          	sh	a7,-2(a5)
    3f70:	10f60963          	beq	a2,a5,4082 <matrix_add_const+0x1d6>
    3f74:	1141                	addi	sp,sp,-16
    3f76:	c622                	sw	s0,12(sp)
    3f78:	0007d403          	lhu	s0,0(a5)
    3f7c:	0027df03          	lhu	t5,2(a5)
    3f80:	0047de83          	lhu	t4,4(a5)
    3f84:	0067de03          	lhu	t3,6(a5)
    3f88:	0087d303          	lhu	t1,8(a5)
    3f8c:	00a7d883          	lhu	a7,10(a5)
    3f90:	00c7d803          	lhu	a6,12(a5)
    3f94:	00e7d703          	lhu	a4,14(a5)
    3f98:	9436                	add	s0,s0,a3
    3f9a:	9f36                	add	t5,t5,a3
    3f9c:	9eb6                	add	t4,t4,a3
    3f9e:	9e36                	add	t3,t3,a3
    3fa0:	9336                	add	t1,t1,a3
    3fa2:	98b6                	add	a7,a7,a3
    3fa4:	9836                	add	a6,a6,a3
    3fa6:	9736                	add	a4,a4,a3
    3fa8:	00879023          	sh	s0,0(a5)
    3fac:	01e79123          	sh	t5,2(a5)
    3fb0:	01d79223          	sh	t4,4(a5)
    3fb4:	01c79323          	sh	t3,6(a5)
    3fb8:	00679423          	sh	t1,8(a5)
    3fbc:	01179523          	sh	a7,10(a5)
    3fc0:	01079623          	sh	a6,12(a5)
    3fc4:	00e79723          	sh	a4,14(a5)
    3fc8:	07c1                	addi	a5,a5,16
    3fca:	faf617e3          	bne	a2,a5,3f78 <matrix_add_const+0xcc>
    3fce:	0f85                	addi	t6,t6,1
    3fd0:	40558633          	sub	a2,a1,t0
    3fd4:	0bf50463          	beq	a0,t6,407c <matrix_add_const+0x1d0>
    3fd8:	00c385b3          	add	a1,t2,a2
    3fdc:	40b607b3          	sub	a5,a2,a1
    3fe0:	ffe78413          	addi	s0,a5,-2
    3fe4:	00145f13          	srli	t5,s0,0x1
    3fe8:	001f0e93          	addi	t4,t5,1
    3fec:	007efe13          	andi	t3,t4,7
    3ff0:	87ae                	mv	a5,a1
    3ff2:	f80e03e3          	beqz	t3,3f78 <matrix_add_const+0xcc>
    3ff6:	4305                	li	t1,1
    3ff8:	066e0463          	beq	t3,t1,4060 <matrix_add_const+0x1b4>
    3ffc:	4889                	li	a7,2
    3ffe:	051e0a63          	beq	t3,a7,4052 <matrix_add_const+0x1a6>
    4002:	480d                	li	a6,3
    4004:	050e0063          	beq	t3,a6,4044 <matrix_add_const+0x198>
    4008:	4711                	li	a4,4
    400a:	02ee0663          	beq	t3,a4,4036 <matrix_add_const+0x18a>
    400e:	4415                	li	s0,5
    4010:	008e0c63          	beq	t3,s0,4028 <matrix_add_const+0x17c>
    4014:	4f19                	li	t5,6
    4016:	07ee1c63          	bne	t3,t5,408e <matrix_add_const+0x1e2>
    401a:	0007d303          	lhu	t1,0(a5)
    401e:	0789                	addi	a5,a5,2
    4020:	006688b3          	add	a7,a3,t1
    4024:	ff179f23          	sh	a7,-2(a5)
    4028:	0007d803          	lhu	a6,0(a5)
    402c:	0789                	addi	a5,a5,2
    402e:	01068733          	add	a4,a3,a6
    4032:	fee79f23          	sh	a4,-2(a5)
    4036:	0007d403          	lhu	s0,0(a5)
    403a:	0789                	addi	a5,a5,2
    403c:	00868f33          	add	t5,a3,s0
    4040:	ffe79f23          	sh	t5,-2(a5)
    4044:	0007de83          	lhu	t4,0(a5)
    4048:	0789                	addi	a5,a5,2
    404a:	01d68e33          	add	t3,a3,t4
    404e:	ffc79f23          	sh	t3,-2(a5)
    4052:	0007d303          	lhu	t1,0(a5)
    4056:	0789                	addi	a5,a5,2
    4058:	006688b3          	add	a7,a3,t1
    405c:	ff179f23          	sh	a7,-2(a5)
    4060:	0007d803          	lhu	a6,0(a5)
    4064:	0789                	addi	a5,a5,2
    4066:	01068733          	add	a4,a3,a6
    406a:	fee79f23          	sh	a4,-2(a5)
    406e:	f0f615e3          	bne	a2,a5,3f78 <matrix_add_const+0xcc>
    4072:	0f85                	addi	t6,t6,1
    4074:	40558633          	sub	a2,a1,t0
    4078:	f7f510e3          	bne	a0,t6,3fd8 <matrix_add_const+0x12c>
    407c:	4432                	lw	s0,12(sp)
    407e:	0141                	addi	sp,sp,16
    4080:	8082                	ret
    4082:	0f85                	addi	t6,t6,1
    4084:	40558633          	sub	a2,a1,t0
    4088:	e5f511e3          	bne	a0,t6,3eca <matrix_add_const+0x1e>
    408c:	8082                	ret
    408e:	0005de83          	lhu	t4,0(a1)
    4092:	00258793          	addi	a5,a1,2
    4096:	01d68e33          	add	t3,a3,t4
    409a:	01c59023          	sh	t3,0(a1)
    409e:	bfb5                	j	401a <matrix_add_const+0x16e>

000040a0 <matrix_mul_vect>:
    40a0:	18050a63          	beqz	a0,4234 <matrix_mul_vect+0x194>
    40a4:	7179                	addi	sp,sp,-48
    40a6:	00151f93          	slli	t6,a0,0x1
    40aa:	050a                	slli	a0,a0,0x2
    40ac:	d622                	sw	s0,44(sp)
    40ae:	d426                	sw	s1,40(sp)
    40b0:	d24a                	sw	s2,36(sp)
    40b2:	d04e                	sw	s3,32(sp)
    40b4:	ce52                	sw	s4,28(sp)
    40b6:	cc56                	sw	s5,24(sp)
    40b8:	ca5a                	sw	s6,20(sp)
    40ba:	c85e                	sw	s7,16(sp)
    40bc:	c662                	sw	s8,12(sp)
    40be:	00a58f33          	add	t5,a1,a0
    40c2:	01f68eb3          	add	t4,a3,t6
    40c6:	0001                	nop
    40c8:	40de88b3          	sub	a7,t4,a3
    40cc:	ffe88293          	addi	t0,a7,-2
    40d0:	0012d313          	srli	t1,t0,0x1
    40d4:	00130393          	addi	t2,t1,1
    40d8:	0073f413          	andi	s0,t2,7
    40dc:	87b6                	mv	a5,a3
    40de:	8732                	mv	a4,a2
    40e0:	4301                	li	t1,0
    40e2:	c44d                	beqz	s0,418c <matrix_mul_vect+0xec>
    40e4:	4485                	li	s1,1
    40e6:	08940863          	beq	s0,s1,4176 <matrix_mul_vect+0xd6>
    40ea:	4809                	li	a6,2
    40ec:	07040c63          	beq	s0,a6,4164 <matrix_mul_vect+0xc4>
    40f0:	490d                	li	s2,3
    40f2:	07240063          	beq	s0,s2,4152 <matrix_mul_vect+0xb2>
    40f6:	4991                	li	s3,4
    40f8:	05340463          	beq	s0,s3,4140 <matrix_mul_vect+0xa0>
    40fc:	4a15                	li	s4,5
    40fe:	03440863          	beq	s0,s4,412e <matrix_mul_vect+0x8e>
    4102:	4a99                	li	s5,6
    4104:	01540c63          	beq	s0,s5,411c <matrix_mul_vect+0x7c>
    4108:	00061b03          	lh	s6,0(a2)
    410c:	00069b83          	lh	s7,0(a3)
    4110:	00260713          	addi	a4,a2,2
    4114:	00268793          	addi	a5,a3,2
    4118:	037b0333          	mul	t1,s6,s7
    411c:	00071c03          	lh	s8,0(a4)
    4120:	00079e03          	lh	t3,0(a5)
    4124:	0709                	addi	a4,a4,2
    4126:	0789                	addi	a5,a5,2
    4128:	03cc0533          	mul	a0,s8,t3
    412c:	932a                	add	t1,t1,a0
    412e:	00071883          	lh	a7,0(a4)
    4132:	00079283          	lh	t0,0(a5)
    4136:	0709                	addi	a4,a4,2
    4138:	0789                	addi	a5,a5,2
    413a:	025883b3          	mul	t2,a7,t0
    413e:	931e                	add	t1,t1,t2
    4140:	00071403          	lh	s0,0(a4)
    4144:	00079483          	lh	s1,0(a5)
    4148:	0709                	addi	a4,a4,2
    414a:	0789                	addi	a5,a5,2
    414c:	02940833          	mul	a6,s0,s1
    4150:	9342                	add	t1,t1,a6
    4152:	00071903          	lh	s2,0(a4)
    4156:	00079983          	lh	s3,0(a5)
    415a:	0709                	addi	a4,a4,2
    415c:	0789                	addi	a5,a5,2
    415e:	03390a33          	mul	s4,s2,s3
    4162:	9352                	add	t1,t1,s4
    4164:	00071a83          	lh	s5,0(a4)
    4168:	00079b03          	lh	s6,0(a5)
    416c:	0709                	addi	a4,a4,2
    416e:	0789                	addi	a5,a5,2
    4170:	036a8bb3          	mul	s7,s5,s6
    4174:	935e                	add	t1,t1,s7
    4176:	00071c03          	lh	s8,0(a4)
    417a:	00079e03          	lh	t3,0(a5)
    417e:	0789                	addi	a5,a5,2
    4180:	0709                	addi	a4,a4,2
    4182:	03cc0533          	mul	a0,s8,t3
    4186:	932a                	add	t1,t1,a0
    4188:	08fe8563          	beq	t4,a5,4212 <matrix_mul_vect+0x172>
    418c:	00071283          	lh	t0,0(a4)
    4190:	00079883          	lh	a7,0(a5)
    4194:	00279c03          	lh	s8,2(a5)
    4198:	00271983          	lh	s3,2(a4)
    419c:	00471503          	lh	a0,4(a4)
    41a0:	00479b83          	lh	s7,4(a5)
    41a4:	03128833          	mul	a6,t0,a7
    41a8:	00671403          	lh	s0,6(a4)
    41ac:	00679b03          	lh	s6,6(a5)
    41b0:	00871383          	lh	t2,8(a4)
    41b4:	00879a83          	lh	s5,8(a5)
    41b8:	00a71283          	lh	t0,10(a4)
    41bc:	00a79a03          	lh	s4,10(a5)
    41c0:	00c71e03          	lh	t3,12(a4)
    41c4:	00c79903          	lh	s2,12(a5)
    41c8:	00e71883          	lh	a7,14(a4)
    41cc:	038989b3          	mul	s3,s3,s8
    41d0:	00e79483          	lh	s1,14(a5)
    41d4:	9342                	add	t1,t1,a6
    41d6:	07c1                	addi	a5,a5,16
    41d8:	0741                	addi	a4,a4,16
    41da:	03750c33          	mul	s8,a0,s7
    41de:	01330533          	add	a0,t1,s3
    41e2:	03640bb3          	mul	s7,s0,s6
    41e6:	01850433          	add	s0,a0,s8
    41ea:	03538b33          	mul	s6,t2,s5
    41ee:	01740833          	add	a6,s0,s7
    41f2:	034283b3          	mul	t2,t0,s4
    41f6:	01680ab3          	add	s5,a6,s6
    41fa:	032e02b3          	mul	t0,t3,s2
    41fe:	007a8a33          	add	s4,s5,t2
    4202:	02988e33          	mul	t3,a7,s1
    4206:	005a0933          	add	s2,s4,t0
    420a:	01c90333          	add	t1,s2,t3
    420e:	f6fe9fe3          	bne	t4,a5,418c <matrix_mul_vect+0xec>
    4212:	0065a023          	sw	t1,0(a1)
    4216:	0591                	addi	a1,a1,4
    4218:	967e                	add	a2,a2,t6
    421a:	eabf17e3          	bne	t5,a1,40c8 <matrix_mul_vect+0x28>
    421e:	5432                	lw	s0,44(sp)
    4220:	54a2                	lw	s1,40(sp)
    4222:	5912                	lw	s2,36(sp)
    4224:	5982                	lw	s3,32(sp)
    4226:	4a72                	lw	s4,28(sp)
    4228:	4ae2                	lw	s5,24(sp)
    422a:	4b52                	lw	s6,20(sp)
    422c:	4bc2                	lw	s7,16(sp)
    422e:	4c32                	lw	s8,12(sp)
    4230:	6145                	addi	sp,sp,48
    4232:	8082                	ret
    4234:	8082                	ret
    4236:	0001                	nop

00004238 <matrix_mul_matrix>:
    4238:	1c050f63          	beqz	a0,4416 <matrix_mul_matrix+0x1de>
    423c:	7139                	addi	sp,sp,-64
    423e:	d05e                	sw	s7,32(sp)
    4240:	8baa                	mv	s7,a0
    4242:	00151813          	slli	a6,a0,0x1
    4246:	002b9793          	slli	a5,s7,0x2
    424a:	d25a                	sw	s6,36(sp)
    424c:	ce62                	sw	s8,28(sp)
    424e:	cc66                	sw	s9,24(sp)
    4250:	ca6a                	sw	s10,20(sp)
    4252:	de22                	sw	s0,60(sp)
    4254:	dc26                	sw	s1,56(sp)
    4256:	da4a                	sw	s2,52(sp)
    4258:	d84e                	sw	s3,48(sp)
    425a:	d652                	sw	s4,44(sp)
    425c:	d456                	sw	s5,40(sp)
    425e:	c86e                	sw	s11,16(sp)
    4260:	8d36                	mv	s10,a3
    4262:	8532                	mv	a0,a2
    4264:	010603b3          	add	t2,a2,a6
    4268:	c63e                	sw	a5,12(sp)
    426a:	8c2e                	mv	s8,a1
    426c:	01068b33          	add	s6,a3,a6
    4270:	4c81                	li	s9,0
    4272:	0001                	nop
    4274:	866a                	mv	a2,s10
    4276:	82e2                	mv	t0,s8
    4278:	40a38733          	sub	a4,t2,a0
    427c:	ffe70313          	addi	t1,a4,-2
    4280:	00135413          	srli	s0,t1,0x1
    4284:	00140493          	addi	s1,s0,1 # fffff001 <__C_STACK_TOP__+0xfffef001>
    4288:	0074f913          	andi	s2,s1,7
    428c:	85b2                	mv	a1,a2
    428e:	86aa                	mv	a3,a0
    4290:	4781                	li	a5,0
    4292:	0a090663          	beqz	s2,433e <matrix_mul_matrix+0x106>
    4296:	4885                	li	a7,1
    4298:	09190863          	beq	s2,a7,4328 <matrix_mul_matrix+0xf0>
    429c:	4989                	li	s3,2
    429e:	07390c63          	beq	s2,s3,4316 <matrix_mul_matrix+0xde>
    42a2:	4a0d                	li	s4,3
    42a4:	07490063          	beq	s2,s4,4304 <matrix_mul_matrix+0xcc>
    42a8:	4a91                	li	s5,4
    42aa:	05590463          	beq	s2,s5,42f2 <matrix_mul_matrix+0xba>
    42ae:	4d95                	li	s11,5
    42b0:	03b90863          	beq	s2,s11,42e0 <matrix_mul_matrix+0xa8>
    42b4:	4e19                	li	t3,6
    42b6:	01c90c63          	beq	s2,t3,42ce <matrix_mul_matrix+0x96>
    42ba:	00051e83          	lh	t4,0(a0)
    42be:	00061f03          	lh	t5,0(a2)
    42c2:	00250693          	addi	a3,a0,2
    42c6:	010605b3          	add	a1,a2,a6
    42ca:	03ee87b3          	mul	a5,t4,t5
    42ce:	00069f83          	lh	t6,0(a3)
    42d2:	00059703          	lh	a4,0(a1)
    42d6:	0689                	addi	a3,a3,2
    42d8:	95c2                	add	a1,a1,a6
    42da:	02ef8333          	mul	t1,t6,a4
    42de:	979a                	add	a5,a5,t1
    42e0:	00069403          	lh	s0,0(a3)
    42e4:	00059483          	lh	s1,0(a1)
    42e8:	0689                	addi	a3,a3,2
    42ea:	95c2                	add	a1,a1,a6
    42ec:	02940933          	mul	s2,s0,s1
    42f0:	97ca                	add	a5,a5,s2
    42f2:	00069983          	lh	s3,0(a3)
    42f6:	00059883          	lh	a7,0(a1)
    42fa:	0689                	addi	a3,a3,2
    42fc:	95c2                	add	a1,a1,a6
    42fe:	03198a33          	mul	s4,s3,a7
    4302:	97d2                	add	a5,a5,s4
    4304:	00069a83          	lh	s5,0(a3)
    4308:	00059d83          	lh	s11,0(a1)
    430c:	0689                	addi	a3,a3,2
    430e:	95c2                	add	a1,a1,a6
    4310:	03ba8e33          	mul	t3,s5,s11
    4314:	97f2                	add	a5,a5,t3
    4316:	00069e83          	lh	t4,0(a3)
    431a:	00059f03          	lh	t5,0(a1)
    431e:	0689                	addi	a3,a3,2
    4320:	95c2                	add	a1,a1,a6
    4322:	03ee8fb3          	mul	t6,t4,t5
    4326:	97fe                	add	a5,a5,t6
    4328:	00069703          	lh	a4,0(a3)
    432c:	00059303          	lh	t1,0(a1)
    4330:	0689                	addi	a3,a3,2
    4332:	95c2                	add	a1,a1,a6
    4334:	02670433          	mul	s0,a4,t1
    4338:	97a2                	add	a5,a5,s0
    433a:	0ad38363          	beq	t2,a3,43e0 <matrix_mul_matrix+0x1a8>
    433e:	010584b3          	add	s1,a1,a6
    4342:	00069983          	lh	s3,0(a3)
    4346:	00059a03          	lh	s4,0(a1)
    434a:	00049f03          	lh	t5,0(s1)
    434e:	00269a83          	lh	s5,2(a3)
    4352:	03498733          	mul	a4,s3,s4
    4356:	010488b3          	add	a7,s1,a6
    435a:	01088e33          	add	t3,a7,a6
    435e:	00089d83          	lh	s11,0(a7)
    4362:	00469903          	lh	s2,4(a3)
    4366:	010e0fb3          	add	t6,t3,a6
    436a:	000e1a03          	lh	s4,0(t3)
    436e:	00669403          	lh	s0,6(a3)
    4372:	010f8333          	add	t1,t6,a6
    4376:	00869e83          	lh	t4,8(a3)
    437a:	03ea8ab3          	mul	s5,s5,t5
    437e:	000f9983          	lh	s3,0(t6)
    4382:	010308b3          	add	a7,t1,a6
    4386:	00a69e03          	lh	t3,10(a3)
    438a:	00031483          	lh	s1,0(t1)
    438e:	010885b3          	add	a1,a7,a6
    4392:	00c69303          	lh	t1,12(a3)
    4396:	00089f83          	lh	t6,0(a7)
    439a:	00059f03          	lh	t5,0(a1)
    439e:	00e69883          	lh	a7,14(a3)
    43a2:	03b90933          	mul	s2,s2,s11
    43a6:	97ba                	add	a5,a5,a4
    43a8:	01578db3          	add	s11,a5,s5
    43ac:	06c1                	addi	a3,a3,16
    43ae:	95c2                	add	a1,a1,a6
    43b0:	03440433          	mul	s0,s0,s4
    43b4:	012d8733          	add	a4,s11,s2
    43b8:	033e8a33          	mul	s4,t4,s3
    43bc:	00870eb3          	add	t4,a4,s0
    43c0:	029e09b3          	mul	s3,t3,s1
    43c4:	014e8e33          	add	t3,t4,s4
    43c8:	03f304b3          	mul	s1,t1,t6
    43cc:	013e0333          	add	t1,t3,s3
    43d0:	03e88ab3          	mul	s5,a7,t5
    43d4:	00930fb3          	add	t6,t1,s1
    43d8:	015f87b3          	add	a5,t6,s5
    43dc:	f6d391e3          	bne	t2,a3,433e <matrix_mul_matrix+0x106>
    43e0:	00f2a023          	sw	a5,0(t0)
    43e4:	0609                	addi	a2,a2,2
    43e6:	0291                	addi	t0,t0,4
    43e8:	e8cb18e3          	bne	s6,a2,4278 <matrix_mul_matrix+0x40>
    43ec:	4632                	lw	a2,12(sp)
    43ee:	0c85                	addi	s9,s9,1
    43f0:	9542                	add	a0,a0,a6
    43f2:	93c2                	add	t2,t2,a6
    43f4:	9c32                	add	s8,s8,a2
    43f6:	e79b9fe3          	bne	s7,s9,4274 <matrix_mul_matrix+0x3c>
    43fa:	5472                	lw	s0,60(sp)
    43fc:	54e2                	lw	s1,56(sp)
    43fe:	5952                	lw	s2,52(sp)
    4400:	59c2                	lw	s3,48(sp)
    4402:	5a32                	lw	s4,44(sp)
    4404:	5aa2                	lw	s5,40(sp)
    4406:	5b12                	lw	s6,36(sp)
    4408:	5b82                	lw	s7,32(sp)
    440a:	4c72                	lw	s8,28(sp)
    440c:	4ce2                	lw	s9,24(sp)
    440e:	4d52                	lw	s10,20(sp)
    4410:	4dc2                	lw	s11,16(sp)
    4412:	6121                	addi	sp,sp,64
    4414:	8082                	ret
    4416:	8082                	ret

00004418 <matrix_mul_matrix_bitextract>:
    4418:	18050e63          	beqz	a0,45b4 <matrix_mul_matrix_bitextract+0x19c>
    441c:	1101                	addi	sp,sp,-32
    441e:	00151e13          	slli	t3,a0,0x1
    4422:	cc26                	sw	s1,24(sp)
    4424:	84b6                	mv	s1,a3
    4426:	ce22                	sw	s0,28(sp)
    4428:	ca4a                	sw	s2,20(sp)
    442a:	c84e                	sw	s3,16(sp)
    442c:	c652                	sw	s4,12(sp)
    442e:	c456                	sw	s5,8(sp)
    4430:	c25a                	sw	s6,4(sp)
    4432:	8fb2                	mv	t6,a2
    4434:	01c60f33          	add	t5,a2,t3
    4438:	00251913          	slli	s2,a0,0x2
    443c:	86ae                	mv	a3,a1
    443e:	01c483b3          	add	t2,s1,t3
    4442:	4401                	li	s0,0
    4444:	8ea6                	mv	t4,s1
    4446:	82b6                	mv	t0,a3
    4448:	41ff07b3          	sub	a5,t5,t6
    444c:	ffe78313          	addi	t1,a5,-2
    4450:	00135593          	srli	a1,t1,0x1
    4454:	00158613          	addi	a2,a1,1
    4458:	00367813          	andi	a6,a2,3
    445c:	8376                	mv	t1,t4
    445e:	867e                	mv	a2,t6
    4460:	4981                	li	s3,0
    4462:	08080463          	beqz	a6,44ea <matrix_mul_matrix_bitextract+0xd2>
    4466:	4705                	li	a4,1
    4468:	04e80c63          	beq	a6,a4,44c0 <matrix_mul_matrix_bitextract+0xa8>
    446c:	4889                	li	a7,2
    446e:	03180663          	beq	a6,a7,449a <matrix_mul_matrix_bitextract+0x82>
    4472:	000f9983          	lh	s3,0(t6)
    4476:	000e9a03          	lh	s4,0(t4)
    447a:	002f8613          	addi	a2,t6,2
    447e:	01ce8333          	add	t1,t4,t3
    4482:	03498ab3          	mul	s5,s3,s4
    4486:	402adb13          	srai	s6,s5,0x2
    448a:	405ad793          	srai	a5,s5,0x5
    448e:	00fb7593          	andi	a1,s6,15
    4492:	07f7f813          	andi	a6,a5,127
    4496:	030589b3          	mul	s3,a1,a6
    449a:	00061883          	lh	a7,0(a2)
    449e:	00031703          	lh	a4,0(t1)
    44a2:	0609                	addi	a2,a2,2
    44a4:	9372                	add	t1,t1,t3
    44a6:	02e88a33          	mul	s4,a7,a4
    44aa:	402a5a93          	srai	s5,s4,0x2
    44ae:	405a5b13          	srai	s6,s4,0x5
    44b2:	00faf593          	andi	a1,s5,15
    44b6:	07fb7793          	andi	a5,s6,127
    44ba:	02f58833          	mul	a6,a1,a5
    44be:	99c2                	add	s3,s3,a6
    44c0:	00061883          	lh	a7,0(a2)
    44c4:	00031703          	lh	a4,0(t1)
    44c8:	0609                	addi	a2,a2,2
    44ca:	9372                	add	t1,t1,t3
    44cc:	02e88a33          	mul	s4,a7,a4
    44d0:	402a5a93          	srai	s5,s4,0x2
    44d4:	405a5b13          	srai	s6,s4,0x5
    44d8:	00faf593          	andi	a1,s5,15
    44dc:	07fb7793          	andi	a5,s6,127
    44e0:	02f58833          	mul	a6,a1,a5
    44e4:	99c2                	add	s3,s3,a6
    44e6:	0acf0263          	beq	t5,a2,458a <matrix_mul_matrix_bitextract+0x172>
    44ea:	01c30733          	add	a4,t1,t3
    44ee:	00061a03          	lh	s4,0(a2)
    44f2:	00031a83          	lh	s5,0(t1)
    44f6:	01c70b33          	add	s6,a4,t3
    44fa:	00071783          	lh	a5,0(a4)
    44fe:	00261883          	lh	a7,2(a2)
    4502:	01cb0333          	add	t1,s6,t3
    4506:	00461803          	lh	a6,4(a2)
    450a:	000b1b03          	lh	s6,0(s6)
    450e:	035a0733          	mul	a4,s4,s5
    4512:	00661583          	lh	a1,6(a2)
    4516:	00031a83          	lh	s5,0(t1)
    451a:	0621                	addi	a2,a2,8
    451c:	9372                	add	t1,t1,t3
    451e:	02f888b3          	mul	a7,a7,a5
    4522:	40575a13          	srai	s4,a4,0x5
    4526:	40275793          	srai	a5,a4,0x2
    452a:	00f7f713          	andi	a4,a5,15
    452e:	07fa7793          	andi	a5,s4,127
    4532:	03680833          	mul	a6,a6,s6
    4536:	4028db13          	srai	s6,a7,0x2
    453a:	4058d893          	srai	a7,a7,0x5
    453e:	00fb7a13          	andi	s4,s6,15
    4542:	07f8fb13          	andi	s6,a7,127
    4546:	035585b3          	mul	a1,a1,s5
    454a:	40285a93          	srai	s5,a6,0x2
    454e:	40585813          	srai	a6,a6,0x5
    4552:	00fafa93          	andi	s5,s5,15
    4556:	07f87813          	andi	a6,a6,127
    455a:	02f707b3          	mul	a5,a4,a5
    455e:	4055d893          	srai	a7,a1,0x5
    4562:	4025d713          	srai	a4,a1,0x2
    4566:	8b3d                	andi	a4,a4,15
    4568:	07f8f593          	andi	a1,a7,127
    456c:	036a0a33          	mul	s4,s4,s6
    4570:	99be                	add	s3,s3,a5
    4572:	030a8b33          	mul	s6,s5,a6
    4576:	01498ab3          	add	s5,s3,s4
    457a:	02b70833          	mul	a6,a4,a1
    457e:	016a87b3          	add	a5,s5,s6
    4582:	010789b3          	add	s3,a5,a6
    4586:	f6cf12e3          	bne	t5,a2,44ea <matrix_mul_matrix_bitextract+0xd2>
    458a:	0132a023          	sw	s3,0(t0)
    458e:	0e89                	addi	t4,t4,2
    4590:	0291                	addi	t0,t0,4
    4592:	ebd39be3          	bne	t2,t4,4448 <matrix_mul_matrix_bitextract+0x30>
    4596:	0405                	addi	s0,s0,1
    4598:	9ff2                	add	t6,t6,t3
    459a:	9f72                	add	t5,t5,t3
    459c:	96ca                	add	a3,a3,s2
    459e:	ea8513e3          	bne	a0,s0,4444 <matrix_mul_matrix_bitextract+0x2c>
    45a2:	4472                	lw	s0,28(sp)
    45a4:	44e2                	lw	s1,24(sp)
    45a6:	4952                	lw	s2,20(sp)
    45a8:	49c2                	lw	s3,16(sp)
    45aa:	4a32                	lw	s4,12(sp)
    45ac:	4aa2                	lw	s5,8(sp)
    45ae:	4b12                	lw	s6,4(sp)
    45b0:	6105                	addi	sp,sp,32
    45b2:	8082                	ret
    45b4:	8082                	ret
	...

000045b8 <iterate>:
    45b8:	1101                	addi	sp,sp,-32
    45ba:	c64e                	sw	s3,12(sp)
    45bc:	01c52983          	lw	s3,28(a0)
    45c0:	ce06                	sw	ra,28(sp)
    45c2:	cc22                	sw	s0,24(sp)
    45c4:	ca26                	sw	s1,20(sp)
    45c6:	c84a                	sw	s2,16(sp)
    45c8:	c452                	sw	s4,8(sp)
    45ca:	c256                	sw	s5,4(sp)
    45cc:	02052c23          	sw	zero,56(a0)
    45d0:	02052e23          	sw	zero,60(a0)
    45d4:	16098d63          	beqz	s3,474e <iterate+0x196>
    45d8:	0039f793          	andi	a5,s3,3
    45dc:	842a                	mv	s0,a0
    45de:	4481                	li	s1,0
    45e0:	cfd1                	beqz	a5,467c <iterate+0xc4>
    45e2:	4705                	li	a4,1
    45e4:	06e78263          	beq	a5,a4,4648 <iterate+0x90>
    45e8:	4089                	li	ra,2
    45ea:	02178863          	beq	a5,ra,461a <iterate+0x62>
    45ee:	4585                	li	a1,1
    45f0:	a8cfd0ef          	jal	ra,187c <core_bench_list>
    45f4:	03845583          	lhu	a1,56(s0)
    45f8:	4485                	li	s1,1
    45fa:	2e3000ef          	jal	ra,50dc <crcu16>
    45fe:	02a41c23          	sh	a0,56(s0)
    4602:	55fd                	li	a1,-1
    4604:	8522                	mv	a0,s0
    4606:	a76fd0ef          	jal	ra,187c <core_bench_list>
    460a:	03845583          	lhu	a1,56(s0)
    460e:	2cf000ef          	jal	ra,50dc <crcu16>
    4612:	02a41c23          	sh	a0,56(s0)
    4616:	02a41d23          	sh	a0,58(s0)
    461a:	4585                	li	a1,1
    461c:	8522                	mv	a0,s0
    461e:	a5efd0ef          	jal	ra,187c <core_bench_list>
    4622:	03845583          	lhu	a1,56(s0)
    4626:	2b7000ef          	jal	ra,50dc <crcu16>
    462a:	02a41c23          	sh	a0,56(s0)
    462e:	55fd                	li	a1,-1
    4630:	8522                	mv	a0,s0
    4632:	a4afd0ef          	jal	ra,187c <core_bench_list>
    4636:	03845583          	lhu	a1,56(s0)
    463a:	2a3000ef          	jal	ra,50dc <crcu16>
    463e:	02a41c23          	sh	a0,56(s0)
    4642:	12048d63          	beqz	s1,477c <iterate+0x1c4>
    4646:	0485                	addi	s1,s1,1
    4648:	4585                	li	a1,1
    464a:	8522                	mv	a0,s0
    464c:	a30fd0ef          	jal	ra,187c <core_bench_list>
    4650:	03845583          	lhu	a1,56(s0)
    4654:	289000ef          	jal	ra,50dc <crcu16>
    4658:	02a41c23          	sh	a0,56(s0)
    465c:	55fd                	li	a1,-1
